---
triple:          'arm64-apple-darwin'
binary-path:     '/Users/dominik/Desktop/files/c++/competitive-programming/oij/etap_1/XX/zkl'
relocations:
  - { offset: 0x2ECA5, size: 0x8, addend: 0x0, symName: __ZStL8__ioinit, symObjAddr: 0xDA74A, symBinAddr: 0x10000C000, symSize: 0x0 }
  - { offset: 0x2FC67, size: 0x8, addend: 0x0, symName: __GLOBAL__sub_I_zkl.cpp, symObjAddr: 0x3470, symBinAddr: 0x100003274, symSize: 0x14 }
  - { offset: 0x2FC7F, size: 0x8, addend: 0x0, symName: __Z41__static_initialization_and_destruction_0v, symObjAddr: 0x3434, symBinAddr: 0x100003238, symSize: 0x3C }
  - { offset: 0x2FC97, size: 0x8, addend: 0x0, symName: __ZSt9__fill_a1IccEN9__gnu_cxx11__enable_ifIXaasrSt9__is_byteIT_E7__valueoosrSt10__are_sameIS3_T0_E7__valuesrSt20__memcpyable_integerIS6_E7__widthEvE6__typeEPS3_SC_RKS6_, symObjAddr: 0x2A58, symBinAddr: 0x1000031A0, symSize: 0x98 }
  - { offset: 0x2FD84, size: 0x8, addend: 0x0, symName: __ZSt19__relocate_object_aISt4pairIciES1_SaIS1_EEvPT_PT0_RT1_, symObjAddr: 0x29D8, symBinAddr: 0x100003120, symSize: 0x80 }
  - { offset: 0x2FEC1, size: 0x8, addend: 0x0, symName: __ZNSt15__new_allocatorISt4pairIciEE8allocateEmPKv, symObjAddr: 0x295C, symBinAddr: 0x1000030A4, symSize: 0x7C }
  - { offset: 0x2FF9B, size: 0x8, addend: 0x0, symName: __ZSt12construct_atIcJEQaant20is_unbounded_array_vIT_ErqXgsnwcvPvLi0E_S0_pispcl7declvalIT0_EEEEEPS0_S3_DpOS2_, symObjAddr: 0x2900, symBinAddr: 0x100003048, symSize: 0x5C }
  - { offset: 0x2FFEB, size: 0x8, addend: 0x0, symName: __ZSt14__relocate_a_1IPSt4pairIciES2_SaIS1_EET0_T_S5_S4_RT1_, symObjAddr: 0x2888, symBinAddr: 0x100002FD0, symSize: 0x78 }
  - { offset: 0x30102, size: 0x8, addend: 0x0, symName: __ZNSt15__new_allocatorIcE8allocateEmPKv, symObjAddr: 0x2824, symBinAddr: 0x100002F6C, symSize: 0x64 }
  - { offset: 0x301C5, size: 0x8, addend: 0x0, symName: __ZNSt19_UninitDestroyGuardIPcvE7releaseEv, symObjAddr: 0x2808, symBinAddr: 0x100002F50, symSize: 0x1C }
  - { offset: 0x301EB, size: 0x8, addend: 0x0, symName: __ZSt10_ConstructIcJEEvPT_DpOT0_, symObjAddr: 0x27A4, symBinAddr: 0x100002EEC, symSize: 0x64 }
  - { offset: 0x30262, size: 0x8, addend: 0x0, symName: __ZNSt19_UninitDestroyGuardIPcvED1Ev, symObjAddr: 0x274C, symBinAddr: 0x100002E94, symSize: 0x58 }
  - { offset: 0x30284, size: 0x8, addend: 0x0, symName: __ZStssIciciENSt26common_comparison_categoryIJDTclL_ZNSt8__detail11__synth3wayEEcl7declvalIRT_EEcl7declvalIRT1_EEEEDTclL_ZNS1_11__synth3wayEEcl7declvalIRT0_EEcl7declvalIRT2_EEEEEE4typeERKSt4pairIS2_S7_ERKSE_IS4_S9_E, symObjAddr: 0x26C8, symBinAddr: 0x100002E10, symSize: 0x84 }
  - { offset: 0x30307, size: 0x8, addend: 0x0, symName: __ZSt12__relocate_aIPSt4pairIciES2_SaIS1_EET0_T_S5_S4_RT1_, symObjAddr: 0x267C, symBinAddr: 0x100002DC4, symSize: 0x4C }
  - { offset: 0x30413, size: 0x8, addend: 0x0, symName: __ZNSt15__new_allocatorISt4pairIciEE10deallocateEPS1_m, symObjAddr: 0x264C, symBinAddr: 0x100002D94, symSize: 0x30 }
  - { offset: 0x3049A, size: 0x8, addend: 0x0, symName: __ZNSt27__uninitialized_default_n_1ILb1EE18__uninit_default_nIPcmEET_S3_T0_, symObjAddr: 0x2560, symBinAddr: 0x100002CA8, symSize: 0xEC }
  - { offset: 0x30608, size: 0x8, addend: 0x0, symName: __ZNSt27__uninitialized_default_n_1ILb0EE18__uninit_default_nIPcmEET_S3_T0_, symObjAddr: 0x24E4, symBinAddr: 0x100002C2C, symSize: 0x7C }
  - { offset: 0x306B5, size: 0x8, addend: 0x0, symName: __ZNSt19_UninitDestroyGuardIPcvEC1ERS0_, symObjAddr: 0x24B0, symBinAddr: 0x100002BF8, symSize: 0x34 }
  - { offset: 0x306E4, size: 0x8, addend: 0x0, symName: __ZNKSt4lessISt4pairIciEEclERKS1_S4_, symObjAddr: 0x2480, symBinAddr: 0x100002BC8, symSize: 0x30 }
  - { offset: 0x3073C, size: 0x8, addend: 0x0, symName: __ZNKSt8__detail10_Synth3wayclIiiEEDaRKT_RKT0_QrqXltfL0p_fL0p0_RNS_18__boolean_testableEXltfL0p0_fL0p_RNS_18__boolean_testableEE, symObjAddr: 0x2424, symBinAddr: 0x100002B6C, symSize: 0x5C }
  - { offset: 0x3079A, size: 0x8, addend: 0x0, symName: __ZNKSt8__detail10_Synth3wayclIccEEDaRKT_RKT0_QrqXltfL0p_fL0p0_RNS_18__boolean_testableEXltfL0p0_fL0p_RNS_18__boolean_testableEE, symObjAddr: 0x23C8, symBinAddr: 0x100002B10, symSize: 0x5C }
  - { offset: 0x307F4, size: 0x8, addend: 0x0, symName: __ZNSt6vectorISt4pairIciESaIS1_EE11_S_relocateEPS1_S4_S4_RS2_, symObjAddr: 0x2394, symBinAddr: 0x100002ADC, symSize: 0x34 }
  - { offset: 0x3088D, size: 0x8, addend: 0x0, symName: __ZNSt6vectorISt4pairIciESaIS1_EE12_Guard_allocD1Ev, symObjAddr: 0x2348, symBinAddr: 0x100002A90, symSize: 0x4C }
  - { offset: 0x308F7, size: 0x8, addend: 0x0, symName: __ZNSt6vectorISt4pairIciESaIS1_EE12_Guard_allocC1EPS1_mRSt12_Vector_baseIS1_S2_E, symObjAddr: 0x2304, symBinAddr: 0x100002A4C, symSize: 0x44 }
  - { offset: 0x30938, size: 0x8, addend: 0x0, symName: __ZNSt12_Vector_baseISt4pairIciESaIS1_EE11_M_allocateEm, symObjAddr: 0x2240, symBinAddr: 0x100002988, symSize: 0xC4 }
  - { offset: 0x309E2, size: 0x8, addend: 0x0, symName: __ZSt12construct_atISt4pairIciEJS1_EQaant20is_unbounded_array_vIT_ErqXgsnwcvPvLi0E_S2_pispcl7declvalIT0_EEEEEPS2_S5_DpOS4_, symObjAddr: 0x21D0, symBinAddr: 0x100002918, symSize: 0x70 }
  - { offset: 0x30A69, size: 0x8, addend: 0x0, symName: __ZN9__gnu_cxx5__ops15_Iter_comp_iterISt4lessISt4pairIciEEEclINS_17__normal_iteratorIPS4_St6vectorIS4_SaIS4_EEEESD_EEbT_T0_, symObjAddr: 0x21A4, symBinAddr: 0x1000028EC, symSize: 0x2C }
  - { offset: 0x30B35, size: 0x8, addend: 0x0, symName: __ZNSt15__new_allocatorIcE10deallocateEPcm, symObjAddr: 0x217C, symBinAddr: 0x1000028C4, symSize: 0x28 }
  - { offset: 0x30BF7, size: 0x8, addend: 0x0, symName: __ZSt10destroy_atIcEvPT_, symObjAddr: 0x2168, symBinAddr: 0x1000028B0, symSize: 0x14 }
  - { offset: 0x30C29, size: 0x8, addend: 0x0, symName: __ZSt25__uninitialized_default_nIPcmET_S1_T0_, symObjAddr: 0x2118, symBinAddr: 0x100002860, symSize: 0x50 }
  - { offset: 0x30C8B, size: 0x8, addend: 0x0, symName: __ZNSt12_Vector_baseIcSaIcEE11_M_allocateEm, symObjAddr: 0x2070, symBinAddr: 0x1000027B8, symSize: 0xA8 }
  - { offset: 0x30D53, size: 0x8, addend: 0x0, symName: __ZNSt12_Vector_baseIcSaIcEE17_Vector_impl_dataC2Ev, symObjAddr: 0x2044, symBinAddr: 0x10000278C, symSize: 0x2C }
  - { offset: 0x30D79, size: 0x8, addend: 0x0, symName: __ZN9__gnu_cxx5__ops14_Iter_comp_valISt4lessISt4pairIciEEEclINS_17__normal_iteratorIPS4_St6vectorIS4_SaIS4_EEEES4_EEbT_RT0_, symObjAddr: 0x2018, symBinAddr: 0x100002760, symSize: 0x2C }
  - { offset: 0x30E19, size: 0x8, addend: 0x0, symName: __ZNSt6vectorISt4pairIciESaIS1_EE4backEv, symObjAddr: 0x1F7C, symBinAddr: 0x1000026C4, symSize: 0x9C }
  - { offset: 0x30ED0, size: 0x8, addend: 0x0, symName: __ZNSt6vectorISt4pairIciESaIS1_EE17_M_realloc_appendIJS1_EEEvDpOT_, symObjAddr: 0x1DCC, symBinAddr: 0x100002514, symSize: 0x1B0 }
  - { offset: 0x310F9, size: 0x8, addend: 0x0, symName: __ZNSt6vectorISt4pairIciESaIS1_EE11_S_max_sizeERKS2_, symObjAddr: 0x1D98, symBinAddr: 0x1000024E0, symSize: 0x34 }
  - { offset: 0x31149, size: 0x8, addend: 0x0, symName: __ZNKSt12_Vector_baseISt4pairIciESaIS1_EE19_M_get_Tp_allocatorEv, symObjAddr: 0x1D84, symBinAddr: 0x1000024CC, symSize: 0x14 }
  - { offset: 0x31173, size: 0x8, addend: 0x0, symName: __ZNKSt6vectorISt4pairIciESaIS1_EE8max_sizeEv, symObjAddr: 0x1D64, symBinAddr: 0x1000024AC, symSize: 0x20 }
  - { offset: 0x3119D, size: 0x8, addend: 0x0, symName: __ZNKSt6vectorISt4pairIciESaIS1_EE12_M_check_lenEmPKc, symObjAddr: 0x1C94, symBinAddr: 0x1000023DC, symSize: 0xD0 }
  - { offset: 0x311FA, size: 0x8, addend: 0x0, symName: __ZNKSt6vectorISt4pairIciESaIS1_EE4sizeEv, symObjAddr: 0x1C54, symBinAddr: 0x10000239C, symSize: 0x40 }
  - { offset: 0x3129E, size: 0x8, addend: 0x0, symName: __ZSt13__adjust_heapIN9__gnu_cxx17__normal_iteratorIPSt4pairIciESt6vectorIS3_SaIS3_EEEElS3_NS0_5__ops15_Iter_comp_iterISt4lessIS3_EEEEvT_T0_SF_T1_T2_, symObjAddr: 0x19EC, symBinAddr: 0x100002134, symSize: 0x268 }
  - { offset: 0x3162D, size: 0x8, addend: 0x0, symName: __ZNSt4pairIciEaSEOS0_Qcl13_S_assignableIT_T0_EE, symObjAddr: 0x19A0, symBinAddr: 0x1000020E8, symSize: 0x4C }
  - { offset: 0x316AC, size: 0x8, addend: 0x0, symName: __ZSt10destroy_atISt4pairIciEEvPT_, symObjAddr: 0x198C, symBinAddr: 0x1000020D4, symSize: 0x14 }
  - { offset: 0x31774, size: 0x8, addend: 0x0, symName: __ZNSt19__ptr_traits_ptr_toIPKcS0_Lb0EE10pointer_toERS0_, symObjAddr: 0x1964, symBinAddr: 0x1000020AC, symSize: 0x28 }
  - { offset: 0x3183A, size: 0x8, addend: 0x0, symName: __ZNKSt6vectorISt4pairIciESaIS1_EE3endEv, symObjAddr: 0x1934, symBinAddr: 0x10000207C, symSize: 0x30 }
  - { offset: 0x3188E, size: 0x8, addend: 0x0, symName: __ZNKSt6vectorISt4pairIciESaIS1_EE5beginEv, symObjAddr: 0x1908, symBinAddr: 0x100002050, symSize: 0x2C }
  - { offset: 0x318DE, size: 0x8, addend: 0x0, symName: __ZSt8_DestroyIPcEvT_S1_, symObjAddr: 0x18AC, symBinAddr: 0x100001FF4, symSize: 0x5C }
  - { offset: 0x3195C, size: 0x8, addend: 0x0, symName: __ZSt27__uninitialized_default_n_aIPcmcET_S1_T0_RSaIT1_E, symObjAddr: 0x1884, symBinAddr: 0x100001FCC, symSize: 0x28 }
  - { offset: 0x319BF, size: 0x8, addend: 0x0, symName: __ZNSt12_Vector_baseIcSaIcEE13_M_deallocateEPcm, symObjAddr: 0x17F8, symBinAddr: 0x100001F40, symSize: 0x8C }
  - { offset: 0x31A91, size: 0x8, addend: 0x0, symName: __ZNSt12_Vector_baseIcSaIcEE17_M_create_storageEm, symObjAddr: 0x179C, symBinAddr: 0x100001EE4, symSize: 0x5C }
  - { offset: 0x31AF3, size: 0x8, addend: 0x0, symName: __ZNSt12_Vector_baseIcSaIcEE12_Vector_implC1ERKS0_, symObjAddr: 0x1750, symBinAddr: 0x100001E98, symSize: 0x4C }
  - { offset: 0x31B76, size: 0x8, addend: 0x0, symName: __ZNSt6vectorIcSaIcEE11_S_max_sizeERKS0_, symObjAddr: 0x171C, symBinAddr: 0x100001E64, symSize: 0x34 }
  - { offset: 0x31BC9, size: 0x8, addend: 0x0, symName: __ZSt11__push_heapIN9__gnu_cxx17__normal_iteratorIPSt4pairIciESt6vectorIS3_SaIS3_EEEElS3_NS0_5__ops14_Iter_comp_valISt4lessIS3_EEEEvT_T0_SF_T1_RT2_, symObjAddr: 0x158C, symBinAddr: 0x100001CD4, symSize: 0x190 }
  - { offset: 0x31E8C, size: 0x8, addend: 0x0, symName: __ZNSt6vectorISt4pairIciESaIS1_EE12emplace_backIJS1_EEERS1_DpOT_, symObjAddr: 0x14E4, symBinAddr: 0x100001C2C, symSize: 0xA8 }
  - { offset: 0x31FA3, size: 0x8, addend: 0x0, symName: __ZSt10__pop_heapIN9__gnu_cxx17__normal_iteratorIPSt4pairIciESt6vectorIS3_SaIS3_EEEENS0_5__ops15_Iter_comp_iterISt4lessIS3_EEEEvT_SE_SE_RT0_, symObjAddr: 0x1450, symBinAddr: 0x100001B98, symSize: 0x94 }
  - { offset: 0x321B0, size: 0x8, addend: 0x0, symName: __ZSt8_DestroyIPSt4pairIciEEvT_S3_, symObjAddr: 0x13F4, symBinAddr: 0x100001B3C, symSize: 0x5C }
  - { offset: 0x32232, size: 0x8, addend: 0x0, symName: __ZNSt12_Vector_baseISt4pairIciESaIS1_EE13_M_deallocateEPS1_m, symObjAddr: 0x1368, symBinAddr: 0x100001AB0, symSize: 0x8C }
  - { offset: 0x3231E, size: 0x8, addend: 0x0, symName: __ZNSt12_Vector_baseISt4pairIciESaIS1_EE17_Vector_impl_dataC2Ev, symObjAddr: 0x133C, symBinAddr: 0x100001A84, symSize: 0x2C }
  - { offset: 0x323A2, size: 0x8, addend: 0x0, symName: __ZNKSt7__cxx1112basic_stringIcSt11char_traitsIcESaIcEE13_M_local_dataEv, symObjAddr: 0x131C, symBinAddr: 0x100001A64, symSize: 0x20 }
  - { offset: 0x323F0, size: 0x8, addend: 0x0, symName: __ZNKSt6vectorIcSaIcEE4sizeEv, symObjAddr: 0x12E0, symBinAddr: 0x100001A28, symSize: 0x3C }
  - { offset: 0x3242B, size: 0x8, addend: 0x0, symName: __ZNKSt6vectorISt4pairIciESaIS1_EE5frontEv, symObjAddr: 0x1278, symBinAddr: 0x1000019C0, symSize: 0x68 }
  - { offset: 0x32491, size: 0x8, addend: 0x0, symName: __ZNKSt6vectorISt4pairIciESaIS1_EE5emptyEv, symObjAddr: 0x1220, symBinAddr: 0x100001968, symSize: 0x58 }
  - { offset: 0x32565, size: 0x8, addend: 0x0, symName: __ZNSt12_Vector_baseIcSaIcEE19_M_get_Tp_allocatorEv, symObjAddr: 0x120C, symBinAddr: 0x100001954, symSize: 0x14 }
  - { offset: 0x3258F, size: 0x8, addend: 0x0, symName: __ZNSt6vectorIcSaIcEE21_M_default_initializeEm, symObjAddr: 0x11BC, symBinAddr: 0x100001904, symSize: 0x50 }
  - { offset: 0x325E4, size: 0x8, addend: 0x0, symName: __ZNSt12_Vector_baseIcSaIcEED2Ev, symObjAddr: 0x1170, symBinAddr: 0x1000018B8, symSize: 0x4C }
  - { offset: 0x32640, size: 0x8, addend: 0x0, symName: __ZNSt12_Vector_baseIcSaIcEEC2EmRKS0_, symObjAddr: 0x111C, symBinAddr: 0x100001864, symSize: 0x54 }
  - { offset: 0x32695, size: 0x8, addend: 0x0, symName: __ZNSt12_Vector_baseIcSaIcEE12_Vector_implD1Ev, symObjAddr: 0x10FC, symBinAddr: 0x100001844, symSize: 0x20 }
  - { offset: 0x326DA, size: 0x8, addend: 0x0, symName: __ZNSt6vectorIcSaIcEE17_S_check_init_lenEmRKS0_, symObjAddr: 0x1088, symBinAddr: 0x1000017D0, symSize: 0x74 }
  - { offset: 0x3278C, size: 0x8, addend: 0x0, symName: __ZSt9push_heapIN9__gnu_cxx17__normal_iteratorIPSt4pairIciESt6vectorIS3_SaIS3_EEEESt4lessIS3_EEvT_SB_T0_, symObjAddr: 0xFD8, symBinAddr: 0x100001720, symSize: 0xB0 }
  - { offset: 0x32948, size: 0x8, addend: 0x0, symName: __ZNSt6vectorISt4pairIciESaIS1_EE9push_backEOS1_, symObjAddr: 0xFA4, symBinAddr: 0x1000016EC, symSize: 0x34 }
  - { offset: 0x32A16, size: 0x8, addend: 0x0, symName: __ZNSt6vectorISt4pairIciESaIS1_EE8pop_backEv, symObjAddr: 0xF14, symBinAddr: 0x10000165C, symSize: 0x90 }
  - { offset: 0x32A84, size: 0x8, addend: 0x0, symName: __ZSt8pop_heapIN9__gnu_cxx17__normal_iteratorIPSt4pairIciESt6vectorIS3_SaIS3_EEEESt4lessIS3_EEvT_SB_T0_, symObjAddr: 0xE28, symBinAddr: 0x100001570, symSize: 0xEC }
  - { offset: 0x32CAE, size: 0x8, addend: 0x0, symName: __ZNSt6vectorISt4pairIciESaIS1_EE3endEv, symObjAddr: 0xDF8, symBinAddr: 0x100001540, symSize: 0x30 }
  - { offset: 0x32D02, size: 0x8, addend: 0x0, symName: __ZNSt6vectorISt4pairIciESaIS1_EE5beginEv, symObjAddr: 0xDCC, symBinAddr: 0x100001514, symSize: 0x2C }
  - { offset: 0x32D91, size: 0x8, addend: 0x0, symName: __ZNSt12_Vector_baseISt4pairIciESaIS1_EE19_M_get_Tp_allocatorEv, symObjAddr: 0xDB8, symBinAddr: 0x100001500, symSize: 0x14 }
  - { offset: 0x32DD5, size: 0x8, addend: 0x0, symName: __ZNSt12_Vector_baseISt4pairIciESaIS1_EED2Ev, symObjAddr: 0xD68, symBinAddr: 0x1000014B0, symSize: 0x50 }
  - { offset: 0x32E2B, size: 0x8, addend: 0x0, symName: __ZNSt12_Vector_baseISt4pairIciESaIS1_EE12_Vector_implC1EvQ26is_default_constructible_vIN9__gnu_cxx14__alloc_traitsIT0_NS7_10value_typeEE6rebindIT_E5otherEE, symObjAddr: 0xD30, symBinAddr: 0x100001478, symSize: 0x38 }
  - { offset: 0x32E97, size: 0x8, addend: 0x0, symName: __ZNSt7__cxx1112basic_stringIcSt11char_traitsIcESaIcEE10_M_destroyEm, symObjAddr: 0xC98, symBinAddr: 0x1000013E0, symSize: 0x98 }
  - { offset: 0x32F83, size: 0x8, addend: 0x0, symName: __ZNKSt7__cxx1112basic_stringIcSt11char_traitsIcESaIcEE11_M_is_localEv, symObjAddr: 0xC30, symBinAddr: 0x100001378, symSize: 0x68 }
  - { offset: 0x32FAD, size: 0x8, addend: 0x0, symName: __ZNSt7__cxx1112basic_stringIcSt11char_traitsIcESaIcEE10_M_disposeEv, symObjAddr: 0xBE8, symBinAddr: 0x100001330, symSize: 0x48 }
  - { offset: 0x32FD7, size: 0x8, addend: 0x0, symName: __ZNSt7__cxx1112basic_stringIcSt11char_traitsIcESaIcEE9_M_lengthEm, symObjAddr: 0xBC4, symBinAddr: 0x10000130C, symSize: 0x24 }
  - { offset: 0x33011, size: 0x8, addend: 0x0, symName: __ZNKSt7__cxx1112basic_stringIcSt11char_traitsIcESaIcEE7_M_dataEv, symObjAddr: 0xBAC, symBinAddr: 0x1000012F4, symSize: 0x18 }
  - { offset: 0x33076, size: 0x8, addend: 0x0, symName: __ZNSt6vectorIcSaIcEE3endEv, symObjAddr: 0xB7C, symBinAddr: 0x1000012C4, symSize: 0x30 }
  - { offset: 0x330CA, size: 0x8, addend: 0x0, symName: __ZNSt6vectorIcSaIcEE5beginEv, symObjAddr: 0xB50, symBinAddr: 0x100001298, symSize: 0x2C }
  - { offset: 0x3311E, size: 0x8, addend: 0x0, symName: __ZNSt6vectorIcSaIcEEixEm, symObjAddr: 0xAD0, symBinAddr: 0x100001218, symSize: 0x80 }
  - { offset: 0x33174, size: 0x8, addend: 0x0, symName: __ZNKSt14priority_queueISt4pairIciESt6vectorIS1_SaIS1_EESt4lessIS1_EE3topEv, symObjAddr: 0xA70, symBinAddr: 0x1000011B8, symSize: 0x60 }
  - { offset: 0x331BB, size: 0x8, addend: 0x0, symName: __ZNKSt14priority_queueISt4pairIciESt6vectorIS1_SaIS1_EESt4lessIS1_EE5emptyEv, symObjAddr: 0xA54, symBinAddr: 0x10000119C, symSize: 0x1C }
  - { offset: 0x331FF, size: 0x8, addend: 0x0, symName: __ZNSt6vectorIcSaIcEED1Ev, symObjAddr: 0x9F8, symBinAddr: 0x100001140, symSize: 0x5C }
  - { offset: 0x33291, size: 0x8, addend: 0x0, symName: __ZNSt6vectorIcSaIcEEC1EmRKS0_, symObjAddr: 0x990, symBinAddr: 0x1000010D8, symSize: 0x68 }
  - { offset: 0x332C9, size: 0x8, addend: 0x0, symName: __ZNSt14priority_queueISt4pairIciESt6vectorIS1_SaIS1_EESt4lessIS1_EE4pushEOS1_, symObjAddr: 0x934, symBinAddr: 0x10000107C, symSize: 0x5C }
  - { offset: 0x33370, size: 0x8, addend: 0x0, symName: __ZNSt4pairIciEC1IRcRiEEOT_OT0_, symObjAddr: 0x8E8, symBinAddr: 0x100001030, symSize: 0x4C }
  - { offset: 0x33402, size: 0x8, addend: 0x0, symName: __ZNSt14priority_queueISt4pairIciESt6vectorIS1_SaIS1_EESt4lessIS1_EE3popEv, symObjAddr: 0x858, symBinAddr: 0x100000FA0, symSize: 0x90 }
  - { offset: 0x33447, size: 0x8, addend: 0x0, symName: __ZNSt7__cxx1112basic_stringIcSt11char_traitsIcESaIcEEixEm, symObjAddr: 0x7D4, symBinAddr: 0x100000F1C, symSize: 0x84 }
  - { offset: 0x334B9, size: 0x8, addend: 0x0, symName: __ZNSt6vectorISt4pairIciESaIS1_EED1Ev, symObjAddr: 0x778, symBinAddr: 0x100000EC0, symSize: 0x5C }
  - { offset: 0x3353D, size: 0x8, addend: 0x0, symName: __ZNSt14priority_queueISt4pairIciESt6vectorIS1_SaIS1_EESt4lessIS1_EEC1IS4_vEEv, symObjAddr: 0x74C, symBinAddr: 0x100000E94, symSize: 0x2C }
  - { offset: 0x3358B, size: 0x8, addend: 0x0, symName: __ZNSt6vectorISt4pairIciESaIS1_EEC1Ev, symObjAddr: 0x72C, symBinAddr: 0x100000E74, symSize: 0x20 }
  - { offset: 0x335CB, size: 0x8, addend: 0x0, symName: __ZNSt12_Vector_baseISt4pairIciESaIS1_EEC2Ev, symObjAddr: 0x70C, symBinAddr: 0x100000E54, symSize: 0x20 }
  - { offset: 0x3360E, size: 0x8, addend: 0x0, symName: __ZNSt12_Vector_baseISt4pairIciESaIS1_EE12_Vector_implD1Ev, symObjAddr: 0x6EC, symBinAddr: 0x100000E34, symSize: 0x20 }
  - { offset: 0x33657, size: 0x8, addend: 0x0, symName: __ZNSt7__cxx1112basic_stringIcSt11char_traitsIcESaIcEE16_M_get_allocatorEv, symObjAddr: 0x6D8, symBinAddr: 0x100000E20, symSize: 0x14 }
  - { offset: 0x33681, size: 0x8, addend: 0x0, symName: __ZNKSt7__cxx1112basic_stringIcSt11char_traitsIcESaIcEE8max_sizeEv, symObjAddr: 0x6A0, symBinAddr: 0x100000DE8, symSize: 0x38 }
  - { offset: 0x336C9, size: 0x8, addend: 0x0, symName: __ZSt3maxImERKT_S2_S2_, symObjAddr: 0x668, symBinAddr: 0x100000DB0, symSize: 0x38 }
  - { offset: 0x3372B, size: 0x8, addend: 0x0, symName: __ZNSt7__cxx1112basic_stringIcSt11char_traitsIcESaIcEED1Ev, symObjAddr: 0x640, symBinAddr: 0x100000D88, symSize: 0x28 }
  - { offset: 0x33751, size: 0x8, addend: 0x0, symName: __ZNSt7__cxx1112basic_stringIcSt11char_traitsIcESaIcEE13_M_set_lengthEm, symObjAddr: 0x5F8, symBinAddr: 0x100000D40, symSize: 0x48 }
  - { offset: 0x33788, size: 0x8, addend: 0x0, symName: __ZSt12construct_atIcJRKcEQaant20is_unbounded_array_vIT_ErqXgsnwcvPvLi0E_S2_pispcl7declvalIT0_EEEEEPS2_S5_DpOS4_, symObjAddr: 0x588, symBinAddr: 0x100000CD0, symSize: 0x70 }
  - { offset: 0x33812, size: 0x8, addend: 0x0, symName: _main, symObjAddr: 0x2F4, symBinAddr: 0x100000A3C, symSize: 0x294 }
  - { offset: 0x33A8E, size: 0x8, addend: 0x0, symName: __ZNSt14priority_queueISt4pairIciESt6vectorIS1_SaIS1_EESt4lessIS1_EED1Ev, symObjAddr: 0x2D4, symBinAddr: 0x100000A1C, symSize: 0x20 }
  - { offset: 0x33AD9, size: 0x8, addend: 0x0, symName: __ZNKSt7__cxx1112basic_stringIcSt11char_traitsIcESaIcEE4sizeEv, symObjAddr: 0x284, symBinAddr: 0x1000009CC, symSize: 0x50 }
  - { offset: 0x33B10, size: 0x8, addend: 0x0, symName: __ZSt3minImERKT_S2_S2_, symObjAddr: 0x24C, symBinAddr: 0x100000994, symSize: 0x38 }
  - { offset: 0x33C2A, size: 0x8, addend: 0x0, symName: __ZNSt7__cxx1112basic_stringIcSt11char_traitsIcESaIcEE12_Alloc_hiderC1EPcOS3_, symObjAddr: 0x1F4, symBinAddr: 0x10000093C, symSize: 0x58 }
  - { offset: 0x33D42, size: 0x8, addend: 0x0, symName: __ZNSt19__ptr_traits_ptr_toIPccLb0EE10pointer_toERc, symObjAddr: 0x1CC, symBinAddr: 0x100000914, symSize: 0x28 }
  - { offset: 0x33DB5, size: 0x8, addend: 0x0, symName: __ZNSt7__cxx1112basic_stringIcSt11char_traitsIcESaIcEE13_M_local_dataEv, symObjAddr: 0x1AC, symBinAddr: 0x1000008F4, symSize: 0x20 }
  - { offset: 0x33DF9, size: 0x8, addend: 0x0, symName: __ZNSt7__cxx1112basic_stringIcSt11char_traitsIcESaIcEEC1EvQ26is_default_constructible_vIT1_E, symObjAddr: 0x100, symBinAddr: 0x100000848, symSize: 0xAC }
  - { offset: 0x33EE5, size: 0x8, addend: 0x0, symName: __ZNSt7__cxx1112basic_stringIcSt11char_traitsIcESaIcEE12_Alloc_hiderD1Ev, symObjAddr: 0xE0, symBinAddr: 0x100000828, symSize: 0x20 }
  - { offset: 0x33F2A, size: 0x8, addend: 0x0, symName: __ZNSt11char_traitsIcE6assignERcRKc, symObjAddr: 0x94, symBinAddr: 0x1000007DC, symSize: 0x4C }
  - { offset: 0x33F7F, size: 0x8, addend: 0x0, symName: __ZSt17__size_to_integerm, symObjAddr: 0x80, symBinAddr: 0x1000007C8, symSize: 0x14 }
  - { offset: 0x33FB0, size: 0x8, addend: 0x0, symName: __ZdlPvS_, symObjAddr: 0x68, symBinAddr: 0x1000007B0, symSize: 0x18 }
  - { offset: 0x33FE6, size: 0x8, addend: 0x0, symName: __ZnwmPv, symObjAddr: 0x50, symBinAddr: 0x100000798, symSize: 0x18 }
  - { offset: 0x34018, size: 0x8, addend: 0x0, symName: __ZStltSt15strong_orderingNSt9__cmp_cat8__unspecE, symObjAddr: 0x2C, symBinAddr: 0x100000774, symSize: 0x24 }
  - { offset: 0x3404B, size: 0x8, addend: 0x0, symName: __ZSteqSt15strong_orderingNSt9__cmp_cat8__unspecE, symObjAddr: 0x8, symBinAddr: 0x100000750, symSize: 0x24 }
  - { offset: 0x3407E, size: 0x8, addend: 0x0, symName: __ZSt21is_constant_evaluatedv, symObjAddr: 0x0, symBinAddr: 0x100000748, symSize: 0x8 }
...
