---
triple:          'arm64-apple-darwin'
binary-path:     '/Users/dominik/Desktop/files/c++/competitive-programming/oij/etap_2/XIX/ppr'
relocations:
  - { offset: 0x2EF43, size: 0x8, addend: 0x0, symName: __ZStL8__ioinit, symObjAddr: 0xDD020, symBinAddr: 0x100008000, symSize: 0x0 }
  - { offset: 0x2F926, size: 0x8, addend: 0x0, symName: _potegowe, symObjAddr: 0xDD028, symBinAddr: 0x100008008, symSize: 0x0 }
  - { offset: 0x30001, size: 0x8, addend: 0x0, symName: __GLOBAL__sub_I_ppr.cpp, symObjAddr: 0x1A58, symBinAddr: 0x100002164, symSize: 0x14 }
  - { offset: 0x30019, size: 0x8, addend: 0x0, symName: __Z41__static_initialization_and_destruction_0v, symObjAddr: 0x19F4, symBinAddr: 0x100002100, symSize: 0x64 }
  - { offset: 0x30052, size: 0x8, addend: 0x0, symName: __ZNSt13unordered_setIxSt4hashIxESt8equal_toIxESaIxEED1Ev, symObjAddr: 0x1998, symBinAddr: 0x1000020E0, symSize: 0x20 }
  - { offset: 0x3008E, size: 0x8, addend: 0x0, symName: __ZNSt15__new_allocatorIPNSt8__detail15_Hash_node_baseEE8allocateEmPKv, symObjAddr: 0x191C, symBinAddr: 0x100002064, symSize: 0x7C }
  - { offset: 0x30127, size: 0x8, addend: 0x0, symName: __ZNK9__gnu_cxx16__aligned_bufferIxE7_M_addrEv, symObjAddr: 0x1908, symBinAddr: 0x100002050, symSize: 0x14 }
  - { offset: 0x30193, size: 0x8, addend: 0x0, symName: __ZNK9__gnu_cxx16__aligned_bufferIxE6_M_ptrEv, symObjAddr: 0x18EC, symBinAddr: 0x100002034, symSize: 0x1C }
  - { offset: 0x301D3, size: 0x8, addend: 0x0, symName: __ZNSt8__detail16_Hashtable_allocISaINS_10_Hash_nodeIxLb0EEEEE19_M_allocate_bucketsEm, symObjAddr: 0x17E4, symBinAddr: 0x100001F2C, symSize: 0x108 }
  - { offset: 0x3040E, size: 0x8, addend: 0x0, symName: __ZNSt15__new_allocatorINSt8__detail10_Hash_nodeIxLb0EEEE8allocateEmPKv, symObjAddr: 0x1768, symBinAddr: 0x100001EB0, symSize: 0x7C }
  - { offset: 0x30484, size: 0x8, addend: 0x0, symName: __ZNSt15__new_allocatorIPNSt8__detail15_Hash_node_baseEE10deallocateEPS2_m, symObjAddr: 0x1738, symBinAddr: 0x100001E80, symSize: 0x30 }
  - { offset: 0x304F3, size: 0x8, addend: 0x0, symName: __ZNSt15__new_allocatorINSt8__detail10_Hash_nodeIxLb0EEEE10deallocateEPS2_m, symObjAddr: 0x1708, symBinAddr: 0x100001E50, symSize: 0x30 }
  - { offset: 0x30562, size: 0x8, addend: 0x0, symName: __ZNKSt8__detail15_Hash_code_baseIxxNS_9_IdentityESt4hashIxENS_18_Mod_range_hashingENS_20_Default_ranged_hashELb0EE15_M_bucket_indexERKNS_16_Hash_node_valueIxLb0EEEm, symObjAddr: 0x16A4, symBinAddr: 0x100001DEC, symSize: 0x64 }
  - { offset: 0x305F6, size: 0x8, addend: 0x0, symName: __ZNSt10_HashtableIxxSaIxENSt8__detail9_IdentityESt8equal_toIxESt4hashIxENS1_18_Mod_range_hashingENS1_20_Default_ranged_hashENS1_20_Prime_rehash_policyENS1_17_Hashtable_traitsILb0ELb1ELb1EEEE19_M_allocate_bucketsEm, symObjAddr: 0x164C, symBinAddr: 0x100001D94, symSize: 0x58 }
  - { offset: 0x30677, size: 0x8, addend: 0x0, symName: __ZNSt8__detail19_Node_iterator_baseIxLb0EEC2EPNS_10_Hash_nodeIxLb0EEE, symObjAddr: 0x1628, symBinAddr: 0x100001D70, symSize: 0x24 }
  - { offset: 0x306A6, size: 0x8, addend: 0x0, symName: __ZNKSt10_HashtableIxxSaIxENSt8__detail9_IdentityESt8equal_toIxESt4hashIxENS1_18_Mod_range_hashingENS1_20_Default_ranged_hashENS1_20_Prime_rehash_policyENS1_17_Hashtable_traitsILb0ELb1ELb1EEEE15_M_bucket_indexERKNS1_16_Hash_node_valueIxLb0EEE, symObjAddr: 0x15F8, symBinAddr: 0x100001D40, symSize: 0x30 }
  - { offset: 0x306E1, size: 0x8, addend: 0x0, symName: __ZNKSt8__detail15_Hashtable_baseIxxNS_9_IdentityESt8equal_toIxESt4hashIxENS_18_Mod_range_hashingENS_20_Default_ranged_hashENS_17_Hashtable_traitsILb0ELb1ELb1EEEE9_M_equalsERKxmRKNS_16_Hash_node_valueIxLb0EEE, symObjAddr: 0x15C8, symBinAddr: 0x100001D10, symSize: 0x30 }
  - { offset: 0x3073E, size: 0x8, addend: 0x0, symName: __ZNKSt8__detail15_Hash_code_baseIxxNS_9_IdentityESt4hashIxENS_18_Mod_range_hashingENS_20_Default_ranged_hashELb0EE15_M_bucket_indexEmm, symObjAddr: 0x159C, symBinAddr: 0x100001CE4, symSize: 0x2C }
  - { offset: 0x3078A, size: 0x8, addend: 0x0, symName: __ZNKSt8equal_toIxEclERKxS2_, symObjAddr: 0x1568, symBinAddr: 0x100001CB0, symSize: 0x34 }
  - { offset: 0x307E2, size: 0x8, addend: 0x0, symName: __ZNKSt8__detail9_IdentityclIRKxEEOT_S5_, symObjAddr: 0x1548, symBinAddr: 0x100001C90, symSize: 0x20 }
  - { offset: 0x3085E, size: 0x8, addend: 0x0, symName: __ZNKSt8__detail15_Hashtable_baseIxxNS_9_IdentityESt8equal_toIxESt4hashIxENS_18_Mod_range_hashingENS_20_Default_ranged_hashENS_17_Hashtable_traitsILb0ELb1ELb1EEEE5_M_eqEv, symObjAddr: 0x1534, symBinAddr: 0x100001C7C, symSize: 0x14 }
  - { offset: 0x308A2, size: 0x8, addend: 0x0, symName: __ZNSt8__detail22_Hashtable_hash_traitsISt4hashIxEE22__small_size_thresholdEv, symObjAddr: 0x152C, symBinAddr: 0x100001C74, symSize: 0x8 }
  - { offset: 0x308C1, size: 0x8, addend: 0x0, symName: __ZSt12construct_atIxJxEQaant20is_unbounded_array_vIT_ErqXgsnwcvPvLi0E_S0_pispcl7declvalIT0_EEEEEPS0_S3_DpOS2_, symObjAddr: 0x14BC, symBinAddr: 0x100001C04, symSize: 0x70 }
  - { offset: 0x30A1D, size: 0x8, addend: 0x0, symName: __ZN9__gnu_cxx16__aligned_bufferIxE7_M_addrEv, symObjAddr: 0x14A8, symBinAddr: 0x100001BF0, symSize: 0x14 }
  - { offset: 0x30A6C, size: 0x8, addend: 0x0, symName: __ZNSt10_HashtableIxxSaIxENSt8__detail9_IdentityESt8equal_toIxESt4hashIxENS1_18_Mod_range_hashingENS1_20_Default_ranged_hashENS1_20_Prime_rehash_policyENS1_17_Hashtable_traitsILb0ELb1ELb1EEEE22_M_insert_bucket_beginEmPNS1_10_Hash_nodeIxLb0EEE, symObjAddr: 0x139C, symBinAddr: 0x100001AE4, symSize: 0x10C }
  - { offset: 0x30AB8, size: 0x8, addend: 0x0, symName: __ZNKSt10_HashtableIxxSaIxENSt8__detail9_IdentityESt8equal_toIxESt4hashIxENS1_18_Mod_range_hashingENS1_20_Default_ranged_hashENS1_20_Prime_rehash_policyENS1_17_Hashtable_traitsILb0ELb1ELb1EEEE13_M_store_codeERNS1_16_Hash_node_valueIxLb0EEEm, symObjAddr: 0x1380, symBinAddr: 0x100001AC8, symSize: 0x1C }
  - { offset: 0x30B04, size: 0x8, addend: 0x0, symName: __ZNSt10_HashtableIxxSaIxENSt8__detail9_IdentityESt8equal_toIxESt4hashIxENS1_18_Mod_range_hashingENS1_20_Default_ranged_hashENS1_20_Prime_rehash_policyENS1_17_Hashtable_traitsILb0ELb1ELb1EEEE9_M_rehashEmSt17integral_constantIbLb1EE, symObjAddr: 0x1214, symBinAddr: 0x10000195C, symSize: 0x16C }
  - { offset: 0x30BCB, size: 0x8, addend: 0x0, symName: __ZNSt8__detail17_RehashStateGuardINS_20_Prime_rehash_policyEED1Ev, symObjAddr: 0x11D0, symBinAddr: 0x100001918, symSize: 0x44 }
  - { offset: 0x30C19, size: 0x8, addend: 0x0, symName: __ZNSt8__detail17_RehashStateGuardINS_20_Prime_rehash_policyEEC1ERS1_, symObjAddr: 0x118C, symBinAddr: 0x1000018D4, symSize: 0x44 }
  - { offset: 0x30CC0, size: 0x8, addend: 0x0, symName: __ZNSt8__detail14_Node_iteratorIxLb1ELb0EEC1EPNS_10_Hash_nodeIxLb0EEE, symObjAddr: 0x1164, symBinAddr: 0x1000018AC, symSize: 0x28 }
  - { offset: 0x30CEF, size: 0x8, addend: 0x0, symName: __ZNKSt10_HashtableIxxSaIxENSt8__detail9_IdentityESt8equal_toIxESt4hashIxENS1_18_Mod_range_hashingENS1_20_Default_ranged_hashENS1_20_Prime_rehash_policyENS1_17_Hashtable_traitsILb0ELb1ELb1EEEE19_M_find_before_nodeEmRKxm, symObjAddr: 0x1038, symBinAddr: 0x100001780, symSize: 0x12C }
  - { offset: 0x30D81, size: 0x8, addend: 0x0, symName: __ZNKSt10_HashtableIxxSaIxENSt8__detail9_IdentityESt8equal_toIxESt4hashIxENS1_18_Mod_range_hashingENS1_20_Default_ranged_hashENS1_20_Prime_rehash_policyENS1_17_Hashtable_traitsILb0ELb1ELb1EEEE15_M_bucket_indexEm, symObjAddr: 0x1008, symBinAddr: 0x100001750, symSize: 0x30 }
  - { offset: 0x30DBC, size: 0x8, addend: 0x0, symName: __ZNKSt8__detail15_Hash_code_baseIxxNS_9_IdentityESt4hashIxENS_18_Mod_range_hashingENS_20_Default_ranged_hashELb0EE12_M_hash_codeERKx, symObjAddr: 0xFD8, symBinAddr: 0x100001720, symSize: 0x30 }
  - { offset: 0x30DF7, size: 0x8, addend: 0x0, symName: __ZNKSt8__detail15_Hashtable_baseIxxNS_9_IdentityESt8equal_toIxESt4hashIxENS_18_Mod_range_hashingENS_20_Default_ranged_hashENS_17_Hashtable_traitsILb0ELb1ELb1EEEE13_M_key_equalsERKxRKNS_16_Hash_node_valueIxLb0EEE, symObjAddr: 0xF6C, symBinAddr: 0x1000016B4, symSize: 0x6C }
  - { offset: 0x30E8B, size: 0x8, addend: 0x0, symName: __ZNKSt10_HashtableIxxSaIxENSt8__detail9_IdentityESt8equal_toIxESt4hashIxENS1_18_Mod_range_hashingENS1_20_Default_ranged_hashENS1_20_Prime_rehash_policyENS1_17_Hashtable_traitsILb0ELb1ELb1EEEE15__location_type7_M_nodeEv, symObjAddr: 0xF38, symBinAddr: 0x100001680, symSize: 0x34 }
  - { offset: 0x30EB1, size: 0x8, addend: 0x0, symName: __ZNSt19__ptr_traits_ptr_toIPNSt8__detail15_Hash_node_baseES1_Lb0EE10pointer_toERS1_, symObjAddr: 0xF10, symBinAddr: 0x100001658, symSize: 0x28 }
  - { offset: 0x30F20, size: 0x8, addend: 0x0, symName: __ZNSt10_HashtableIxxSaIxENSt8__detail9_IdentityESt8equal_toIxESt4hashIxENS1_18_Mod_range_hashingENS1_20_Default_ranged_hashENS1_20_Prime_rehash_policyENS1_17_Hashtable_traitsILb0ELb1ELb1EEEE22__small_size_thresholdEv, symObjAddr: 0xEFC, symBinAddr: 0x100001644, symSize: 0x14 }
  - { offset: 0x31053, size: 0x8, addend: 0x0, symName: __ZNSt19__ptr_traits_ptr_toIPPNSt8__detail15_Hash_node_baseES2_Lb0EE10pointer_toERS2_, symObjAddr: 0xED4, symBinAddr: 0x10000161C, symSize: 0x28 }
  - { offset: 0x310F4, size: 0x8, addend: 0x0, symName: __ZNSt19__ptr_traits_ptr_toIPNSt8__detail10_Hash_nodeIxLb0EEES2_Lb0EE10pointer_toERS2_, symObjAddr: 0xEAC, symBinAddr: 0x1000015F4, symSize: 0x28 }
  - { offset: 0x31163, size: 0x8, addend: 0x0, symName: __ZSt10destroy_atIxEvPT_, symObjAddr: 0xE98, symBinAddr: 0x1000015E0, symSize: 0x14 }
  - { offset: 0x31199, size: 0x8, addend: 0x0, symName: __ZN9__gnu_cxx16__aligned_bufferIxE6_M_ptrEv, symObjAddr: 0xE7C, symBinAddr: 0x1000015C4, symSize: 0x1C }
  - { offset: 0x31212, size: 0x8, addend: 0x0, symName: __ZNSt4pairINSt8__detail14_Node_iteratorIxLb1ELb0EEEbEC1IRS2_bEEOT_OT0_, symObjAddr: 0xE30, symBinAddr: 0x100001578, symSize: 0x4C }
  - { offset: 0x312A4, size: 0x8, addend: 0x0, symName: __ZNSt10_HashtableIxxSaIxENSt8__detail9_IdentityESt8equal_toIxESt4hashIxENS1_18_Mod_range_hashingENS1_20_Default_ranged_hashENS1_20_Prime_rehash_policyENS1_17_Hashtable_traitsILb0ELb1ELb1EEEE21_M_insert_unique_nodeEmmPNS1_10_Hash_nodeIxLb0EEEm, symObjAddr: 0xD20, symBinAddr: 0x100001468, symSize: 0x110 }
  - { offset: 0x3137F, size: 0x8, addend: 0x0, symName: __ZNSt4pairINSt8__detail14_Node_iteratorIxLb1ELb0EEEbEC1IS2_bEEOT_OT0_, symObjAddr: 0xCD4, symBinAddr: 0x10000141C, symSize: 0x4C }
  - { offset: 0x31411, size: 0x8, addend: 0x0, symName: __ZNKSt10_HashtableIxxSaIxENSt8__detail9_IdentityESt8equal_toIxESt4hashIxENS1_18_Mod_range_hashingENS1_20_Default_ranged_hashENS1_20_Prime_rehash_policyENS1_17_Hashtable_traitsILb0ELb1ELb1EEEE15__location_typecvNS1_14_Node_iteratorIxLb1ELb0EEEEv, symObjAddr: 0xCA8, symBinAddr: 0x1000013F0, symSize: 0x2C }
  - { offset: 0x3143B, size: 0x8, addend: 0x0, symName: __ZNKSt10_HashtableIxxSaIxENSt8__detail9_IdentityESt8equal_toIxESt4hashIxENS1_18_Mod_range_hashingENS1_20_Default_ranged_hashENS1_20_Prime_rehash_policyENS1_17_Hashtable_traitsILb0ELb1ELb1EEEE15__location_typecvbEv, symObjAddr: 0xC84, symBinAddr: 0x1000013CC, symSize: 0x24 }
  - { offset: 0x31465, size: 0x8, addend: 0x0, symName: __ZNKSt10_HashtableIxxSaIxENSt8__detail9_IdentityESt8equal_toIxESt4hashIxENS1_18_Mod_range_hashingENS1_20_Default_ranged_hashENS1_20_Prime_rehash_policyENS1_17_Hashtable_traitsILb0ELb1ELb1EEEE9_M_locateERKx, symObjAddr: 0xB4C, symBinAddr: 0x100001294, symSize: 0x138 }
  - { offset: 0x314D8, size: 0x8, addend: 0x0, symName: __ZNSt8__detail16_Hashtable_allocISaINS_10_Hash_nodeIxLb0EEEEE16_M_allocate_nodeIJxEEEPS2_DpOT_, symObjAddr: 0x9E0, symBinAddr: 0x100001128, symSize: 0x16C }
  - { offset: 0x316D4, size: 0x8, addend: 0x0, symName: __ZNSt8__detail10_Hash_nodeIxLb0EEC1Ev, symObjAddr: 0x9C0, symBinAddr: 0x100001108, symSize: 0x20 }
  - { offset: 0x3175F, size: 0x8, addend: 0x0, symName: __ZNSt10_HashtableIxxSaIxENSt8__detail9_IdentityESt8equal_toIxESt4hashIxENS1_18_Mod_range_hashingENS1_20_Default_ranged_hashENS1_20_Prime_rehash_policyENS1_17_Hashtable_traitsILb0ELb1ELb1EEEE12_Scoped_nodeD1Ev, symObjAddr: 0x97C, symBinAddr: 0x1000010C4, symSize: 0x44 }
  - { offset: 0x317BB, size: 0x8, addend: 0x0, symName: __ZNSt10_HashtableIxxSaIxENSt8__detail9_IdentityESt8equal_toIxESt4hashIxENS1_18_Mod_range_hashingENS1_20_Default_ranged_hashENS1_20_Prime_rehash_policyENS1_17_Hashtable_traitsILb0ELb1ELb1EEEE12_Scoped_nodeC1EPNS1_10_Hash_nodeIxLb0EEEPNS1_16_Hashtable_allocISaISF_EEE, symObjAddr: 0x948, symBinAddr: 0x100001090, symSize: 0x34 }
  - { offset: 0x31811, size: 0x8, addend: 0x0, symName: __ZNKSt8__detail9_IdentityclIRxEEOT_S4_, symObjAddr: 0x928, symBinAddr: 0x100001070, symSize: 0x20 }
  - { offset: 0x31877, size: 0x8, addend: 0x0, symName: __ZNSt8__detail16_Hashtable_allocISaINS_10_Hash_nodeIxLb0EEEEE21_M_deallocate_bucketsEPPNS_15_Hash_node_baseEm, symObjAddr: 0x884, symBinAddr: 0x100000FCC, symSize: 0xA4 }
  - { offset: 0x319D9, size: 0x8, addend: 0x0, symName: __ZNKSt10_HashtableIxxSaIxENSt8__detail9_IdentityESt8equal_toIxESt4hashIxENS1_18_Mod_range_hashingENS1_20_Default_ranged_hashENS1_20_Prime_rehash_policyENS1_17_Hashtable_traitsILb0ELb1ELb1EEEE21_M_uses_single_bucketEPPNS1_15_Hash_node_baseE, symObjAddr: 0x848, symBinAddr: 0x100000F90, symSize: 0x3C }
  - { offset: 0x31A14, size: 0x8, addend: 0x0, symName: __ZNSt8__detail16_Hashtable_allocISaINS_10_Hash_nodeIxLb0EEEEE22_M_deallocate_node_ptrEPS2_, symObjAddr: 0x7BC, symBinAddr: 0x100000F04, symSize: 0x8C }
  - { offset: 0x31B2A, size: 0x8, addend: 0x0, symName: __ZNSt8__detail16_Hashtable_allocISaINS_10_Hash_nodeIxLb0EEEEE17_M_node_allocatorEv, symObjAddr: 0x7A8, symBinAddr: 0x100000EF0, symSize: 0x14 }
  - { offset: 0x31B54, size: 0x8, addend: 0x0, symName: __ZNSt10_HashtableIxxSaIxENSt8__detail9_IdentityESt8equal_toIxESt4hashIxENS1_18_Mod_range_hashingENS1_20_Default_ranged_hashENS1_20_Prime_rehash_policyENS1_17_Hashtable_traitsILb0ELb1ELb1EEEE15_M_emplace_uniqIJxEEESt4pairINS1_14_Node_iteratorIxLb1ELb0EEEbEDpOT_, symObjAddr: 0x5E8, symBinAddr: 0x100000D30, symSize: 0x1C0 }
  - { offset: 0x31D45, size: 0x8, addend: 0x0, symName: __ZNSt10_HashtableIxxSaIxENSt8__detail9_IdentityESt8equal_toIxESt4hashIxENS1_18_Mod_range_hashingENS1_20_Default_ranged_hashENS1_20_Prime_rehash_policyENS1_17_Hashtable_traitsILb0ELb1ELb1EEEE21_M_deallocate_bucketsEPPNS1_15_Hash_node_baseEm, symObjAddr: 0x59C, symBinAddr: 0x100000CE4, symSize: 0x4C }
  - { offset: 0x31D91, size: 0x8, addend: 0x0, symName: __ZNSt8__detail16_Hashtable_allocISaINS_10_Hash_nodeIxLb0EEEEE18_M_deallocate_nodeEPS2_, symObjAddr: 0x534, symBinAddr: 0x100000C7C, symSize: 0x68 }
  - { offset: 0x31E1D, size: 0x8, addend: 0x0, symName: __ZNKSt8__detail10_Hash_nodeIxLb0EE7_M_nextEv, symObjAddr: 0x51C, symBinAddr: 0x100000C64, symSize: 0x18 }
  - { offset: 0x31E47, size: 0x8, addend: 0x0, symName: __ZNKSt10_HashtableIxxSaIxENSt8__detail9_IdentityESt8equal_toIxESt4hashIxENS1_18_Mod_range_hashingENS1_20_Default_ranged_hashENS1_20_Prime_rehash_policyENS1_17_Hashtable_traitsILb0ELb1ELb1EEEE4sizeEv, symObjAddr: 0x504, symBinAddr: 0x100000C4C, symSize: 0x18 }
  - { offset: 0x31E71, size: 0x8, addend: 0x0, symName: __ZNSt10_HashtableIxxSaIxENSt8__detail9_IdentityESt8equal_toIxESt4hashIxENS1_18_Mod_range_hashingENS1_20_Default_ranged_hashENS1_20_Prime_rehash_policyENS1_17_Hashtable_traitsILb0ELb1ELb1EEEE6insertEOx, symObjAddr: 0x4D4, symBinAddr: 0x100000C1C, symSize: 0x30 }
  - { offset: 0x31EF5, size: 0x8, addend: 0x0, symName: __ZNSt10_HashtableIxxSaIxENSt8__detail9_IdentityESt8equal_toIxESt4hashIxENS1_18_Mod_range_hashingENS1_20_Default_ranged_hashENS1_20_Prime_rehash_policyENS1_17_Hashtable_traitsILb0ELb1ELb1EEEE21_M_deallocate_bucketsEv, symObjAddr: 0x4A0, symBinAddr: 0x100000BE8, symSize: 0x34 }
  - { offset: 0x31F1F, size: 0x8, addend: 0x0, symName: __ZNSt8__detail16_Hashtable_allocISaINS_10_Hash_nodeIxLb0EEEEE19_M_deallocate_nodesEPS2_, symObjAddr: 0x450, symBinAddr: 0x100000B98, symSize: 0x50 }
  - { offset: 0x31F7E, size: 0x8, addend: 0x0, symName: __ZNKSt10_HashtableIxxSaIxENSt8__detail9_IdentityESt8equal_toIxESt4hashIxENS1_18_Mod_range_hashingENS1_20_Default_ranged_hashENS1_20_Prime_rehash_policyENS1_17_Hashtable_traitsILb0ELb1ELb1EEEE8_M_beginEv, symObjAddr: 0x438, symBinAddr: 0x100000B80, symSize: 0x18 }
  - { offset: 0x31FCD, size: 0x8, addend: 0x0, symName: __ZNKSt13unordered_setIxSt4hashIxESt8equal_toIxESaIxEE4sizeEv, symObjAddr: 0x41C, symBinAddr: 0x100000B64, symSize: 0x1C }
  - { offset: 0x31FF7, size: 0x8, addend: 0x0, symName: __ZNSt13unordered_setIxSt4hashIxESt8equal_toIxESaIxEE6insertEOx, symObjAddr: 0x3F0, symBinAddr: 0x100000B38, symSize: 0x2C }
  - { offset: 0x32052, size: 0x8, addend: 0x0, symName: __ZSt3powIxxEN9__gnu_cxx11__promote_2IDTplcvNS1_IT_XsrSt12__is_integerIS2_E7__valueEE6__typeELi0EcvNS1_IT0_XsrS3_IS7_E7__valueEE6__typeELi0EEXsrS3_ISB_E7__valueEE6__typeES2_S7_, symObjAddr: 0x3B4, symBinAddr: 0x100000AFC, symSize: 0x3C }
  - { offset: 0x320CA, size: 0x8, addend: 0x0, symName: __ZNSt10_HashtableIxxSaIxENSt8__detail9_IdentityESt8equal_toIxESt4hashIxENS1_18_Mod_range_hashingENS1_20_Default_ranged_hashENS1_20_Prime_rehash_policyENS1_17_Hashtable_traitsILb0ELb1ELb1EEEED1Ev, symObjAddr: 0x378, symBinAddr: 0x100000AC0, symSize: 0x3C }
  - { offset: 0x32109, size: 0x8, addend: 0x0, symName: _main, symObjAddr: 0x300, symBinAddr: 0x100000A48, symSize: 0x78 }
  - { offset: 0x32139, size: 0x8, addend: 0x0, symName: __Z8generatev, symObjAddr: 0x230, symBinAddr: 0x100000978, symSize: 0xD0 }
  - { offset: 0x32190, size: 0x8, addend: 0x0, symName: __ZNSt13unordered_setIxSt4hashIxESt8equal_toIxESaIxEEC1Ev, symObjAddr: 0x210, symBinAddr: 0x100000958, symSize: 0x20 }
  - { offset: 0x321D0, size: 0x8, addend: 0x0, symName: __ZNSt10_HashtableIxxSaIxENSt8__detail9_IdentityESt8equal_toIxESt4hashIxENS1_18_Mod_range_hashingENS1_20_Default_ranged_hashENS1_20_Prime_rehash_policyENS1_17_Hashtable_traitsILb0ELb1ELb1EEEEC1Ev, symObjAddr: 0x1A0, symBinAddr: 0x1000008E8, symSize: 0x70 }
  - { offset: 0x32214, size: 0x8, addend: 0x0, symName: __ZNSt8__detail16_Hashtable_allocISaINS_10_Hash_nodeIxLb0EEEEED2Ev, symObjAddr: 0x180, symBinAddr: 0x1000008C8, symSize: 0x20 }
  - { offset: 0x32264, size: 0x8, addend: 0x0, symName: __ZNSt8__detail21_Hashtable_ebo_helperISaINS_10_Hash_nodeIxLb0EEEELb1EED1Ev, symObjAddr: 0x160, symBinAddr: 0x1000008A8, symSize: 0x20 }
  - { offset: 0x322C8, size: 0x8, addend: 0x0, symName: __ZNSt8__detail16_Hashtable_allocISaINS_10_Hash_nodeIxLb0EEEEEC2Ev, symObjAddr: 0x14C, symBinAddr: 0x100000894, symSize: 0x14 }
  - { offset: 0x32308, size: 0x8, addend: 0x0, symName: __ZNSt8__detail15_Hashtable_baseIxxNS_9_IdentityESt8equal_toIxESt4hashIxENS_18_Mod_range_hashingENS_20_Default_ranged_hashENS_17_Hashtable_traitsILb0ELb1ELb1EEEEC2Ev, symObjAddr: 0x12C, symBinAddr: 0x100000874, symSize: 0x20 }
  - { offset: 0x32348, size: 0x8, addend: 0x0, symName: __ZNSt8__detail15_Hash_code_baseIxxNS_9_IdentityESt4hashIxENS_18_Mod_range_hashingENS_20_Default_ranged_hashELb0EEC2Ev, symObjAddr: 0x118, symBinAddr: 0x100000860, symSize: 0x14 }
  - { offset: 0x3236E, size: 0x8, addend: 0x0, symName: __ZNSt8__detail20_Prime_rehash_policy8_M_resetEm, symObjAddr: 0xF4, symBinAddr: 0x10000083C, symSize: 0x24 }
  - { offset: 0x323A9, size: 0x8, addend: 0x0, symName: __ZNKSt8__detail20_Prime_rehash_policy8_M_stateEv, symObjAddr: 0xDC, symBinAddr: 0x100000824, symSize: 0x18 }
  - { offset: 0x323FB, size: 0x8, addend: 0x0, symName: __ZNSt8__detail20_Prime_rehash_policyC1Ef, symObjAddr: 0xB0, symBinAddr: 0x1000007F8, symSize: 0x2C }
  - { offset: 0x3242A, size: 0x8, addend: 0x0, symName: __ZNKSt8__detail18_Mod_range_hashingclEmm, symObjAddr: 0x80, symBinAddr: 0x1000007C8, symSize: 0x30 }
  - { offset: 0x32490, size: 0x8, addend: 0x0, symName: __ZNSt8__detail15_Hash_node_baseC1Ev, symObjAddr: 0x64, symBinAddr: 0x1000007AC, symSize: 0x1C }
  - { offset: 0x324BA, size: 0x8, addend: 0x0, symName: __ZNSt8__detail15_Hash_node_baseC2Ev, symObjAddr: 0x48, symBinAddr: 0x100000790, symSize: 0x1C }
  - { offset: 0x324E0, size: 0x8, addend: 0x0, symName: __ZNKSt4hashIxEclEx, symObjAddr: 0x30, symBinAddr: 0x100000778, symSize: 0x18 }
  - { offset: 0x3251D, size: 0x8, addend: 0x0, symName: __ZdlPvS_, symObjAddr: 0x18, symBinAddr: 0x100000760, symSize: 0x18 }
  - { offset: 0x32553, size: 0x8, addend: 0x0, symName: __ZnwmPv, symObjAddr: 0x0, symBinAddr: 0x100000748, symSize: 0x18 }
...
