---
triple:          'arm64-apple-darwin'
binary-path:     '/Users/dominik/Desktop/files/c++/competitive-programming/warsztaty_25/kwa'
relocations:
  - { offset: 0x31ED1, size: 0x8, addend: 0x0, symName: __ZStL8__ioinit, symObjAddr: 0xF87E0, symBinAddr: 0x100010000, symSize: 0x0 }
  - { offset: 0x327DE, size: 0x8, addend: 0x0, symName: _n, symObjAddr: 0xF87E8, symBinAddr: 0x100010008, symSize: 0x0 }
  - { offset: 0x3292A, size: 0x8, addend: 0x0, symName: _prefix_sum, symObjAddr: 0xF87F0, symBinAddr: 0x100010010, symSize: 0x0 }
  - { offset: 0x330BD, size: 0x8, addend: 0x0, symName: __GLOBAL__sub_I_kwa.cpp, symObjAddr: 0x61F0, symBinAddr: 0x1000062D8, symSize: 0x14 }
  - { offset: 0x330F3, size: 0x8, addend: 0x0, symName: __ZNSt6vectorIS_IS_IiSaIiEESaIS1_EESaIS3_EED1Ev, symObjAddr: 0x5A8C, symBinAddr: 0x100006224, symSize: 0x5C }
  - { offset: 0x3314B, size: 0x8, addend: 0x0, symName: __Z41__static_initialization_and_destruction_0v, symObjAddr: 0x6198, symBinAddr: 0x100006280, symSize: 0x58 }
  - { offset: 0x332B6, size: 0x8, addend: 0x0, symName: __ZSt12construct_atIiJRiEQaant20is_unbounded_array_vIT_ErqXgsnwcvPvLi0E_S1_pispcl7declvalIT0_EEEEEPS1_S4_DpOS3_, symObjAddr: 0x5A1C, symBinAddr: 0x1000061B4, symSize: 0x70 }
  - { offset: 0x3335E, size: 0x8, addend: 0x0, symName: __ZSt14__copy_move_a2ILb0EPiS0_S0_ET2_T0_T1_S1_, symObjAddr: 0x58F0, symBinAddr: 0x100006088, symSize: 0x12C }
  - { offset: 0x33502, size: 0x8, addend: 0x0, symName: __ZSt14__copy_move_a2ILb0EPKiS1_PiET2_T0_T1_S3_, symObjAddr: 0x57C4, symBinAddr: 0x100005F5C, symSize: 0x12C }
  - { offset: 0x33682, size: 0x8, addend: 0x0, symName: __ZSt10_ConstructIiJRiEEvPT_DpOT0_, symObjAddr: 0x573C, symBinAddr: 0x100005ED4, symSize: 0x88 }
  - { offset: 0x337CF, size: 0x8, addend: 0x0, symName: __ZSt12__niter_wrapIN9__gnu_cxx17__normal_iteratorIPiSt6vectorIiSaIiEEEES2_ET_S7_T0_, symObjAddr: 0x56DC, symBinAddr: 0x100005E74, symSize: 0x60 }
  - { offset: 0x3394C, size: 0x8, addend: 0x0, symName: __ZSt18uninitialized_copyIPiS0_ET0_T_S2_S1_, symObjAddr: 0x5660, symBinAddr: 0x100005DF8, symSize: 0x7C }
  - { offset: 0x33A26, size: 0x8, addend: 0x0, symName: __ZSt16__do_uninit_copyIPiS0_S0_ET1_T_T0_S1_, symObjAddr: 0x55D8, symBinAddr: 0x100005D70, symSize: 0x88 }
  - { offset: 0x33B30, size: 0x8, addend: 0x0, symName: __ZSt12__miter_baseIPiET_S1_, symObjAddr: 0x55C4, symBinAddr: 0x100005D5C, symSize: 0x14 }
  - { offset: 0x33B63, size: 0x8, addend: 0x0, symName: __ZSt8_DestroyIN9__gnu_cxx17__normal_iteratorIPiSt6vectorIiSaIiEEEEEvT_S7_, symObjAddr: 0x5534, symBinAddr: 0x100005CCC, symSize: 0x90 }
  - { offset: 0x33D30, size: 0x8, addend: 0x0, symName: __ZSt12__miter_baseIN9__gnu_cxx17__normal_iteratorIPKiSt6vectorIiSaIiEEEEET_S8_, symObjAddr: 0x5520, symBinAddr: 0x100005CB8, symSize: 0x14 }
  - { offset: 0x33D8B, size: 0x8, addend: 0x0, symName: __ZNSt6vectorIiSaIiEE12_Guard_alloc10_M_releaseEv, symObjAddr: 0x54F8, symBinAddr: 0x100005C90, symSize: 0x28 }
  - { offset: 0x33DE0, size: 0x8, addend: 0x0, symName: __ZNSt6vectorIiSaIiEE12_Guard_allocD1Ev, symObjAddr: 0x54AC, symBinAddr: 0x100005C44, symSize: 0x4C }
  - { offset: 0x33E4A, size: 0x8, addend: 0x0, symName: __ZNSt6vectorIiSaIiEE12_Guard_allocC1EPimRSt12_Vector_baseIiS0_E, symObjAddr: 0x5468, symBinAddr: 0x100005C00, symSize: 0x44 }
  - { offset: 0x33E8B, size: 0x8, addend: 0x0, symName: __ZNSt6vectorIiSaIiEE15_M_erase_at_endEPi, symObjAddr: 0x53E0, symBinAddr: 0x100005B78, symSize: 0x88 }
  - { offset: 0x33F1C, size: 0x8, addend: 0x0, symName: __ZSt22__uninitialized_copy_aIPiS0_S0_iET1_T_T0_S1_RSaIT2_E, symObjAddr: 0x5380, symBinAddr: 0x100005B18, symSize: 0x60 }
  - { offset: 0x33FD7, size: 0x8, addend: 0x0, symName: __ZSt4copyIPiS0_ET0_T_S2_S1_, symObjAddr: 0x52E8, symBinAddr: 0x100005A80, symSize: 0x98 }
  - { offset: 0x3417B, size: 0x8, addend: 0x0, symName: __ZNSt6vectorIiSaIiEE3endEv, symObjAddr: 0x52B8, symBinAddr: 0x100005A50, symSize: 0x30 }
  - { offset: 0x341CB, size: 0x8, addend: 0x0, symName: __ZSt4copyIN9__gnu_cxx17__normal_iteratorIPKiSt6vectorIiSaIiEEEENS1_IPiS6_EEET0_T_SB_SA_, symObjAddr: 0x5210, symBinAddr: 0x1000059A8, symSize: 0xA8 }
  - { offset: 0x3436C, size: 0x8, addend: 0x0, symName: __ZNSt6vectorIiSaIiEE5beginEv, symObjAddr: 0x51E4, symBinAddr: 0x10000597C, symSize: 0x2C }
  - { offset: 0x343C0, size: 0x8, addend: 0x0, symName: __ZNSt6vectorIiSaIiEE20_M_allocate_and_copyIN9__gnu_cxx17__normal_iteratorIPKiS1_EEEEPimT_S9_, symObjAddr: 0x5140, symBinAddr: 0x1000058D8, symSize: 0xA4 }
  - { offset: 0x34437, size: 0x8, addend: 0x0, symName: __ZNKSt6vectorIiSaIiEE8capacityEv, symObjAddr: 0x5100, symBinAddr: 0x100005898, symSize: 0x40 }
  - { offset: 0x3449F, size: 0x8, addend: 0x0, symName: __ZNSt6vectorIiSaIiEE5clearEv, symObjAddr: 0x50D4, symBinAddr: 0x10000586C, symSize: 0x2C }
  - { offset: 0x344F9, size: 0x8, addend: 0x0, symName: __ZNSt6vectorIiSaIiEEaSERKS1_, symObjAddr: 0x4D84, symBinAddr: 0x10000551C, symSize: 0x350 }
  - { offset: 0x3472C, size: 0x8, addend: 0x0, symName: __ZNSt12_Vector_baseISt6vectorIiSaIiEESaIS2_EE17_Vector_impl_data12_M_copy_dataERKS5_, symObjAddr: 0x4D3C, symBinAddr: 0x1000054D4, symSize: 0x48 }
  - { offset: 0x3478E, size: 0x8, addend: 0x0, symName: __ZNSt12_Vector_baseISt6vectorIiSaIiEESaIS2_EEC2ERKS3_, symObjAddr: 0x4D14, symBinAddr: 0x1000054AC, symSize: 0x28 }
  - { offset: 0x347B9, size: 0x8, addend: 0x0, symName: __ZSt12construct_atISt6vectorIiSaIiEEJRS2_EQaant20is_unbounded_array_vIT_ErqXgsnwcvPvLi0E_S4_pispcl7declvalIT0_EEEEEPS4_S7_DpOS6_, symObjAddr: 0x4C68, symBinAddr: 0x100005400, symSize: 0xAC }
  - { offset: 0x34861, size: 0x8, addend: 0x0, symName: __ZSt14__copy_move_a2ILb0EPSt6vectorIiSaIiEES3_S3_ET2_T0_T1_S4_, symObjAddr: 0x4C0C, symBinAddr: 0x1000053A4, symSize: 0x5C }
  - { offset: 0x3491D, size: 0x8, addend: 0x0, symName: __ZSt14__copy_move_a2ILb0EPKSt6vectorIiSaIiEES4_PS2_ET2_T0_T1_S6_, symObjAddr: 0x4BB0, symBinAddr: 0x100005348, symSize: 0x5C }
  - { offset: 0x349E6, size: 0x8, addend: 0x0, symName: __ZNSt12_Vector_baseISt6vectorIiSaIiEESaIS2_EE17_Vector_impl_data12_M_swap_dataERS5_, symObjAddr: 0x4B60, symBinAddr: 0x1000052F8, symSize: 0x50 }
  - { offset: 0x34A58, size: 0x8, addend: 0x0, symName: __ZNSt6vectorIS_IiSaIiEESaIS1_EEC1ERKS2_, symObjAddr: 0x4B38, symBinAddr: 0x1000052D0, symSize: 0x28 }
  - { offset: 0x34A87, size: 0x8, addend: 0x0, symName: __ZNKSt12_Vector_baseISt6vectorIiSaIiEESaIS2_EE13get_allocatorEv, symObjAddr: 0x4AE8, symBinAddr: 0x100005280, symSize: 0x50 }
  - { offset: 0x34B06, size: 0x8, addend: 0x0, symName: __ZSt12construct_atIiJRKiEQaant20is_unbounded_array_vIT_ErqXgsnwcvPvLi0E_S2_pispcl7declvalIT0_EEEEEPS2_S5_DpOS4_, symObjAddr: 0x4A78, symBinAddr: 0x100005210, symSize: 0x70 }
  - { offset: 0x34BAE, size: 0x8, addend: 0x0, symName: __ZSt10_ConstructISt6vectorIiSaIiEEJRS2_EEvPT_DpOT0_, symObjAddr: 0x49AC, symBinAddr: 0x100005144, symSize: 0xCC }
  - { offset: 0x34D1A, size: 0x8, addend: 0x0, symName: __ZSt12__niter_wrapIN9__gnu_cxx17__normal_iteratorIPSt6vectorIiSaIiEES2_IS4_SaIS4_EEEES5_ET_S9_T0_, symObjAddr: 0x4934, symBinAddr: 0x1000050CC, symSize: 0x78 }
  - { offset: 0x34EC3, size: 0x8, addend: 0x0, symName: __ZNSt6vectorIS_IiSaIiEESaIS1_EE14_M_move_assignEOS3_St17integral_constantIbLb1EE, symObjAddr: 0x48A8, symBinAddr: 0x100005040, symSize: 0x8C }
  - { offset: 0x34FD8, size: 0x8, addend: 0x0, symName: __ZSt10_ConstructIiJRKiEEvPT_DpOT0_, symObjAddr: 0x4820, symBinAddr: 0x100004FB8, symSize: 0x88 }
  - { offset: 0x350B3, size: 0x8, addend: 0x0, symName: __ZSt9__fill_a1IPiiEvT_S1_RKT0_, symObjAddr: 0x47C0, symBinAddr: 0x100004F58, symSize: 0x60 }
  - { offset: 0x35140, size: 0x8, addend: 0x0, symName: __ZSt18uninitialized_copyIPSt6vectorIiSaIiEES3_ET0_T_S5_S4_, symObjAddr: 0x4794, symBinAddr: 0x100004F2C, symSize: 0x2C }
  - { offset: 0x3519B, size: 0x8, addend: 0x0, symName: __ZSt16__do_uninit_copyIPSt6vectorIiSaIiEES3_S3_ET1_T_T0_S4_, symObjAddr: 0x46F4, symBinAddr: 0x100004E8C, symSize: 0xA0 }
  - { offset: 0x352A5, size: 0x8, addend: 0x0, symName: __ZSt12__miter_baseIPSt6vectorIiSaIiEEET_S4_, symObjAddr: 0x46E0, symBinAddr: 0x100004E78, symSize: 0x14 }
  - { offset: 0x352D8, size: 0x8, addend: 0x0, symName: __ZSt8_DestroyIN9__gnu_cxx17__normal_iteratorIPSt6vectorIiSaIiEES2_IS4_SaIS4_EEEEEvT_S9_, symObjAddr: 0x465C, symBinAddr: 0x100004DF4, symSize: 0x84 }
  - { offset: 0x3548C, size: 0x8, addend: 0x0, symName: __ZSt12__miter_baseIN9__gnu_cxx17__normal_iteratorIPKSt6vectorIiSaIiEES2_IS4_SaIS4_EEEEET_SA_, symObjAddr: 0x4648, symBinAddr: 0x100004DE0, symSize: 0x14 }
  - { offset: 0x354E7, size: 0x8, addend: 0x0, symName: __ZNSt6vectorIS_IiSaIiEESaIS1_EE12_Guard_alloc10_M_releaseEv, symObjAddr: 0x4620, symBinAddr: 0x100004DB8, symSize: 0x28 }
  - { offset: 0x3553C, size: 0x8, addend: 0x0, symName: __ZNSt6vectorIS_IiSaIiEESaIS1_EE12_Guard_allocD1Ev, symObjAddr: 0x45D4, symBinAddr: 0x100004D6C, symSize: 0x4C }
  - { offset: 0x355A6, size: 0x8, addend: 0x0, symName: __ZNSt6vectorIS_IiSaIiEESaIS1_EE12_Guard_allocC1EPS1_mRSt12_Vector_baseIS1_S2_E, symObjAddr: 0x4590, symBinAddr: 0x100004D28, symSize: 0x44 }
  - { offset: 0x355E7, size: 0x8, addend: 0x0, symName: __ZNSt6vectorIS_IiSaIiEESaIS1_EE15_M_erase_at_endEPS1_, symObjAddr: 0x44FC, symBinAddr: 0x100004C94, symSize: 0x94 }
  - { offset: 0x3567C, size: 0x8, addend: 0x0, symName: __ZNSt6vectorIS_IiSaIiEESaIS1_EEaSEOS3_, symObjAddr: 0x44C0, symBinAddr: 0x100004C58, symSize: 0x3C }
  - { offset: 0x35713, size: 0x8, addend: 0x0, symName: __ZNSt12_Vector_baseISt6vectorIiSaIiEESaIS2_EE17_Vector_impl_dataC2EOS5_, symObjAddr: 0x4450, symBinAddr: 0x100004BE8, symSize: 0x70 }
  - { offset: 0x3578F, size: 0x8, addend: 0x0, symName: __ZSt18uninitialized_copyIN9__gnu_cxx17__normal_iteratorIPKSt6vectorIiSaIiEES2_IS4_SaIS4_EEEEPS4_ET0_T_SC_SB_, symObjAddr: 0x4424, symBinAddr: 0x100004BBC, symSize: 0x2C }
  - { offset: 0x357EA, size: 0x8, addend: 0x0, symName: __ZSt16__do_uninit_copyIN9__gnu_cxx17__normal_iteratorIPKSt6vectorIiSaIiEES2_IS4_SaIS4_EEEES9_PS4_ET1_T_T0_SB_, symObjAddr: 0x4350, symBinAddr: 0x100004AE8, symSize: 0xD4 }
  - { offset: 0x359E2, size: 0x8, addend: 0x0, symName: __ZSt18uninitialized_copyIN9__gnu_cxx17__normal_iteratorIPKiSt6vectorIiSaIiEEEEPiET0_T_SA_S9_, symObjAddr: 0x42B8, symBinAddr: 0x100004A50, symSize: 0x98 }
  - { offset: 0x35B8A, size: 0x8, addend: 0x0, symName: __ZSt16__do_uninit_copyIN9__gnu_cxx17__normal_iteratorIPKiSt6vectorIiSaIiEEEES7_PiET1_T_T0_S9_, symObjAddr: 0x41FC, symBinAddr: 0x100004994, symSize: 0xBC }
  - { offset: 0x35E01, size: 0x8, addend: 0x0, symName: __ZSt22__uninitialized_copy_aIPSt6vectorIiSaIiEES3_S3_S2_ET1_T_T0_S4_RSaIT2_E, symObjAddr: 0x419C, symBinAddr: 0x100004934, symSize: 0x60 }
  - { offset: 0x35EBC, size: 0x8, addend: 0x0, symName: __ZSt4copyIPSt6vectorIiSaIiEES3_ET0_T_S5_S4_, symObjAddr: 0x4104, symBinAddr: 0x10000489C, symSize: 0x98 }
  - { offset: 0x36060, size: 0x8, addend: 0x0, symName: __ZNSt6vectorIS_IiSaIiEESaIS1_EE3endEv, symObjAddr: 0x40D4, symBinAddr: 0x10000486C, symSize: 0x30 }
  - { offset: 0x360B0, size: 0x8, addend: 0x0, symName: __ZSt4copyIN9__gnu_cxx17__normal_iteratorIPKSt6vectorIiSaIiEES2_IS4_SaIS4_EEEENS1_IPS4_S8_EEET0_T_SD_SC_, symObjAddr: 0x402C, symBinAddr: 0x1000047C4, symSize: 0xA8 }
  - { offset: 0x36251, size: 0x8, addend: 0x0, symName: __ZNSt6vectorIS_IiSaIiEESaIS1_EE5beginEv, symObjAddr: 0x4000, symBinAddr: 0x100004798, symSize: 0x2C }
  - { offset: 0x362A5, size: 0x8, addend: 0x0, symName: __ZNSt6vectorIS_IiSaIiEESaIS1_EE20_M_allocate_and_copyIN9__gnu_cxx17__normal_iteratorIPKS1_S3_EEEEPS1_mT_SB_, symObjAddr: 0x3F5C, symBinAddr: 0x1000046F4, symSize: 0xA4 }
  - { offset: 0x3631C, size: 0x8, addend: 0x0, symName: __ZNKSt6vectorIS_IiSaIiEESaIS1_EE8capacityEv, symObjAddr: 0x3F10, symBinAddr: 0x1000046A8, symSize: 0x4C }
  - { offset: 0x36384, size: 0x8, addend: 0x0, symName: __ZNSt6vectorIS_IiSaIiEESaIS1_EE5clearEv, symObjAddr: 0x3EE4, symBinAddr: 0x10000467C, symSize: 0x2C }
  - { offset: 0x36445, size: 0x8, addend: 0x0, symName: __ZNSt12_Vector_baseISt6vectorIiSaIiEESaIS2_EE12_Vector_implC1EOS5_, symObjAddr: 0x3E84, symBinAddr: 0x10000461C, symSize: 0x60 }
  - { offset: 0x3650E, size: 0x8, addend: 0x0, symName: __ZSt12construct_atISt6vectorIS0_IiSaIiEESaIS2_EEJS4_EQaant20is_unbounded_array_vIT_ErqXgsnwcvPvLi0E_S5_pispcl7declvalIT0_EEEEEPS5_S8_DpOS7_, symObjAddr: 0x3E10, symBinAddr: 0x1000045A8, symSize: 0x74 }
  - { offset: 0x365C6, size: 0x8, addend: 0x0, symName: __ZNKSt6ranges7__imove9_IterMoveclIRKPSt6vectorIS3_IiSaIiEESaIS5_EEEENS1_8__resultIT_E4typeEOSC_, symObjAddr: 0x3DEC, symBinAddr: 0x100004584, symSize: 0x24 }
  - { offset: 0x36628, size: 0x8, addend: 0x0, symName: __ZSt22__uninitialized_copy_aIN9__gnu_cxx17__normal_iteratorIPKSt6vectorIiSaIiEES2_IS4_SaIS4_EEEES9_PS4_S4_ET1_T_T0_SB_RSaIT2_E, symObjAddr: 0x3D8C, symBinAddr: 0x100004524, symSize: 0x60 }
  - { offset: 0x366E7, size: 0x8, addend: 0x0, symName: __ZNKSt6vectorIS_IiSaIiEESaIS1_EE3endEv, symObjAddr: 0x3D5C, symBinAddr: 0x1000044F4, symSize: 0x30 }
  - { offset: 0x3673B, size: 0x8, addend: 0x0, symName: __ZNKSt6vectorIS_IiSaIiEESaIS1_EE5beginEv, symObjAddr: 0x3D30, symBinAddr: 0x1000044C8, symSize: 0x2C }
  - { offset: 0x367A4, size: 0x8, addend: 0x0, symName: __ZNKSt12_Vector_baseISt6vectorIiSaIiEESaIS2_EE19_M_get_Tp_allocatorEv, symObjAddr: 0x3D1C, symBinAddr: 0x1000044B4, symSize: 0x14 }
  - { offset: 0x367CA, size: 0x8, addend: 0x0, symName: __ZSt22__uninitialized_copy_aIN9__gnu_cxx17__normal_iteratorIPKiSt6vectorIiSaIiEEEES7_PiiET1_T_T0_S9_RSaIT2_E, symObjAddr: 0x3CBC, symBinAddr: 0x100004454, symSize: 0x60 }
  - { offset: 0x36889, size: 0x8, addend: 0x0, symName: __ZNKSt6vectorIiSaIiEE3endEv, symObjAddr: 0x3C8C, symBinAddr: 0x100004424, symSize: 0x30 }
  - { offset: 0x368DD, size: 0x8, addend: 0x0, symName: __ZNKSt6vectorIiSaIiEE5beginEv, symObjAddr: 0x3C60, symBinAddr: 0x1000043F8, symSize: 0x2C }
  - { offset: 0x36946, size: 0x8, addend: 0x0, symName: __ZNKSt12_Vector_baseIiSaIiEE19_M_get_Tp_allocatorEv, symObjAddr: 0x3C4C, symBinAddr: 0x1000043E4, symSize: 0x14 }
  - { offset: 0x36970, size: 0x8, addend: 0x0, symName: __ZNSt15__new_allocatorISt6vectorIiSaIiEEE8allocateEmPKv, symObjAddr: 0x3BBC, symBinAddr: 0x100004354, symSize: 0x90 }
  - { offset: 0x36A4A, size: 0x8, addend: 0x0, symName: __ZSt12construct_atIiJEQaant20is_unbounded_array_vIT_ErqXgsnwcvPvLi0E_S0_pispcl7declvalIT0_EEEEEPS0_S3_DpOS2_, symObjAddr: 0x3B60, symBinAddr: 0x1000042F8, symSize: 0x5C }
  - { offset: 0x36A9E, size: 0x8, addend: 0x0, symName: __ZNSt15__new_allocatorIiE8allocateEmPKv, symObjAddr: 0x3AE4, symBinAddr: 0x10000427C, symSize: 0x7C }
  - { offset: 0x36B14, size: 0x8, addend: 0x0, symName: __ZNSt15__new_allocatorISt6vectorIS0_IiSaIiEESaIS2_EEE8allocateEmPKv, symObjAddr: 0x3A54, symBinAddr: 0x1000041EC, symSize: 0x90 }
  - { offset: 0x36B8A, size: 0x8, addend: 0x0, symName: __ZNSt6vectorIS_IiSaIiEESaIS1_EEaSERKS3_, symObjAddr: 0x36B4, symBinAddr: 0x100003E4C, symSize: 0x3A0 }
  - { offset: 0x36D32, size: 0x8, addend: 0x0, symName: __ZSt23__copy_move_backward_a2ILb1EPSt6vectorIS0_IiSaIiEESaIS2_EES5_ET1_T0_S7_S6_, symObjAddr: 0x3650, symBinAddr: 0x100003DE8, symSize: 0x64 }
  - { offset: 0x36DE5, size: 0x8, addend: 0x0, symName: __ZSt10_ConstructISt6vectorIS0_IiSaIiEESaIS2_EEJS4_EEvPT_DpOT0_, symObjAddr: 0x35BC, symBinAddr: 0x100003D54, symSize: 0x94 }
  - { offset: 0x36EB7, size: 0x8, addend: 0x0, symName: __ZNSt6vectorIS_IiSaIiEESaIS1_EEC1EOS3_, symObjAddr: 0x3594, symBinAddr: 0x100003D2C, symSize: 0x28 }
  - { offset: 0x36F05, size: 0x8, addend: 0x0, symName: __ZNSt12_Vector_baseISt6vectorIiSaIiEESaIS2_EEC2EOS4_, symObjAddr: 0x356C, symBinAddr: 0x100003D04, symSize: 0x28 }
  - { offset: 0x36F34, size: 0x8, addend: 0x0, symName: __ZNKSt13move_iteratorIPSt6vectorIS0_IiSaIiEESaIS2_EEEdeEv, symObjAddr: 0x3544, symBinAddr: 0x100003CDC, symSize: 0x28 }
  - { offset: 0x36F5E, size: 0x8, addend: 0x0, symName: __ZNSt13move_iteratorIPSt6vectorIS0_IiSaIiEESaIS2_EEEppEv, symObjAddr: 0x351C, symBinAddr: 0x100003CB4, symSize: 0x28 }
  - { offset: 0x36FB0, size: 0x8, addend: 0x0, symName: __ZNSt6vectorIS_IiSaIiEESaIS1_EEC1ERKS3_, symObjAddr: 0x3428, symBinAddr: 0x100003BC0, symSize: 0xF4 }
  - { offset: 0x370CA, size: 0x8, addend: 0x0, symName: __ZNSt6vectorIiSaIiEEC1ERKS1_, symObjAddr: 0x3334, symBinAddr: 0x100003ACC, symSize: 0xF4 }
  - { offset: 0x371B8, size: 0x8, addend: 0x0, symName: __ZSt12construct_atISt6vectorIiSaIiEEJRKS2_EQaant20is_unbounded_array_vIT_ErqXgsnwcvPvLi0E_S5_pispcl7declvalIT0_EEEEEPS5_S8_DpOS7_, symObjAddr: 0x3288, symBinAddr: 0x100003A20, symSize: 0xAC }
  - { offset: 0x37264, size: 0x8, addend: 0x0, symName: __ZNSt15__new_allocatorISt6vectorIiSaIiEEE10deallocateEPS2_m, symObjAddr: 0x324C, symBinAddr: 0x1000039E4, symSize: 0x3C }
  - { offset: 0x3731E, size: 0x8, addend: 0x0, symName: __ZNSt19_UninitDestroyGuardIPivE7releaseEv, symObjAddr: 0x3230, symBinAddr: 0x1000039C8, symSize: 0x1C }
  - { offset: 0x37344, size: 0x8, addend: 0x0, symName: __ZSt10_ConstructIiJEEvPT_DpOT0_, symObjAddr: 0x31CC, symBinAddr: 0x100003964, symSize: 0x64 }
  - { offset: 0x373BB, size: 0x8, addend: 0x0, symName: __ZNSt19_UninitDestroyGuardIPivED1Ev, symObjAddr: 0x3174, symBinAddr: 0x10000390C, symSize: 0x58 }
  - { offset: 0x373E1, size: 0x8, addend: 0x0, symName: __ZNSt15__new_allocatorIiE10deallocateEPim, symObjAddr: 0x3144, symBinAddr: 0x1000038DC, symSize: 0x30 }
  - { offset: 0x37468, size: 0x8, addend: 0x0, symName: __ZSt8_DestroyISt6vectorIS0_IiSaIiEESaIS2_EEEvPT_, symObjAddr: 0x3124, symBinAddr: 0x1000038BC, symSize: 0x20 }
  - { offset: 0x374C1, size: 0x8, addend: 0x0, symName: __ZNSt19_UninitDestroyGuardIPSt6vectorIS0_IiSaIiEESaIS2_EEvE7releaseEv, symObjAddr: 0x3108, symBinAddr: 0x1000038A0, symSize: 0x1C }
  - { offset: 0x374E7, size: 0x8, addend: 0x0, symName: __ZSt10_ConstructISt6vectorIS0_IiSaIiEESaIS2_EEJRKS4_EEvPT_DpOT0_, symObjAddr: 0x303C, symBinAddr: 0x1000037D4, symSize: 0xCC }
  - { offset: 0x375B4, size: 0x8, addend: 0x0, symName: __ZNSt19_UninitDestroyGuardIPSt6vectorIS0_IiSaIiEESaIS2_EEvED1Ev, symObjAddr: 0x2FE4, symBinAddr: 0x10000377C, symSize: 0x58 }
  - { offset: 0x375D6, size: 0x8, addend: 0x0, symName: __ZSt9__fill_a1IPSt6vectorIS0_IiSaIiEESaIS2_EES4_EvT_S6_RKT0_, symObjAddr: 0x2F88, symBinAddr: 0x100003720, symSize: 0x5C }
  - { offset: 0x376D0, size: 0x8, addend: 0x0, symName: __ZSt18uninitialized_copyISt13move_iteratorIPSt6vectorIS1_IiSaIiEESaIS3_EEES6_ET0_T_S9_S8_, symObjAddr: 0x2F5C, symBinAddr: 0x1000036F4, symSize: 0x2C }
  - { offset: 0x3772B, size: 0x8, addend: 0x0, symName: __ZSt16__do_uninit_copyISt13move_iteratorIPSt6vectorIS1_IiSaIiEESaIS3_EEES7_S6_ET1_T_T0_S8_, symObjAddr: 0x2EBC, symBinAddr: 0x100003654, symSize: 0xA0 }
  - { offset: 0x377C6, size: 0x8, addend: 0x0, symName: __ZNKRSt13move_iteratorIPSt6vectorIS0_IiSaIiEESaIS2_EEE4baseEv, symObjAddr: 0x2EA8, symBinAddr: 0x100003640, symSize: 0x14 }
  - { offset: 0x377F3, size: 0x8, addend: 0x0, symName: __ZSteqIPSt6vectorIS0_IiSaIiEESaIS2_EEEbRKSt13move_iteratorIT_ESA_, symObjAddr: 0x2E64, symBinAddr: 0x1000035FC, symSize: 0x44 }
  - { offset: 0x37888, size: 0x8, addend: 0x0, symName: __ZNSt13move_iteratorIPSt6vectorIS0_IiSaIiEESaIS2_EEEC1ES5_, symObjAddr: 0x2E3C, symBinAddr: 0x1000035D4, symSize: 0x28 }
  - { offset: 0x378F9, size: 0x8, addend: 0x0, symName: __ZSt10destroy_atISt6vectorIS0_IiSaIiEESaIS2_EEEvPT_, symObjAddr: 0x2E1C, symBinAddr: 0x1000035B4, symSize: 0x20 }
  - { offset: 0x3792B, size: 0x8, addend: 0x0, symName: __ZSt12construct_atISt6vectorIS0_IiSaIiEESaIS2_EEJRKS4_EQaant20is_unbounded_array_vIT_ErqXgsnwcvPvLi0E_S7_pispcl7declvalIT0_EEEEEPS7_SA_DpOS9_, symObjAddr: 0x2D70, symBinAddr: 0x100003508, symSize: 0xAC }
  - { offset: 0x379CC, size: 0x8, addend: 0x0, symName: __ZSt10destroy_atISt6vectorIiSaIiEEEvPT_, symObjAddr: 0x2D50, symBinAddr: 0x1000034E8, symSize: 0x20 }
  - { offset: 0x37A02, size: 0x8, addend: 0x0, symName: __ZNSt19_UninitDestroyGuardIPSt6vectorIiSaIiEEvE7releaseEv, symObjAddr: 0x2D34, symBinAddr: 0x1000034CC, symSize: 0x1C }
  - { offset: 0x37A28, size: 0x8, addend: 0x0, symName: __ZSt10_ConstructISt6vectorIiSaIiEEJRKS2_EEvPT_DpOT0_, symObjAddr: 0x2C68, symBinAddr: 0x100003400, symSize: 0xCC }
  - { offset: 0x37AF5, size: 0x8, addend: 0x0, symName: __ZNSt19_UninitDestroyGuardIPSt6vectorIiSaIiEEvED1Ev, symObjAddr: 0x2C10, symBinAddr: 0x1000033A8, symSize: 0x58 }
  - { offset: 0x37B6B, size: 0x8, addend: 0x0, symName: __ZNSt27__uninitialized_default_n_1ILb1EE18__uninit_default_nIPimEET_S3_T0_, symObjAddr: 0x2B1C, symBinAddr: 0x1000032B4, symSize: 0xF4 }
  - { offset: 0x37CD9, size: 0x8, addend: 0x0, symName: __ZNSt27__uninitialized_default_n_1ILb0EE18__uninit_default_nIPimEET_S3_T0_, symObjAddr: 0x2AA0, symBinAddr: 0x100003238, symSize: 0x7C }
  - { offset: 0x37D86, size: 0x8, addend: 0x0, symName: __ZNSt19_UninitDestroyGuardIPivEC1ERS0_, symObjAddr: 0x2A6C, symBinAddr: 0x100003204, symSize: 0x34 }
  - { offset: 0x37E09, size: 0x8, addend: 0x0, symName: __ZNSt15__new_allocatorISt6vectorIS0_IiSaIiEESaIS2_EEE10deallocateEPS4_m, symObjAddr: 0x2A30, symBinAddr: 0x1000031C8, symSize: 0x3C }
  - { offset: 0x37E53, size: 0x8, addend: 0x0, symName: __ZNSt15__new_allocatorIcE10deallocateEPcm, symObjAddr: 0x2A08, symBinAddr: 0x1000031A0, symSize: 0x28 }
  - { offset: 0x37EB7, size: 0x8, addend: 0x0, symName: __ZSt8_DestroyIPSt6vectorIS0_IiSaIiEESaIS2_EEEvT_S6_, symObjAddr: 0x29B8, symBinAddr: 0x100003150, symSize: 0x50 }
  - { offset: 0x37F1C, size: 0x8, addend: 0x0, symName: __ZSt32__make_move_if_noexcept_iteratorISt6vectorIS0_IiSaIiEESaIS2_EESt13move_iteratorIPS4_EET0_PT_, symObjAddr: 0x2994, symBinAddr: 0x10000312C, symSize: 0x24 }
  - { offset: 0x37F80, size: 0x8, addend: 0x0, symName: __ZNKSt12_Vector_baseISt6vectorIS0_IiSaIiEESaIS2_EESaIS4_EE19_M_get_Tp_allocatorEv, symObjAddr: 0x2980, symBinAddr: 0x100003118, symSize: 0x14 }
  - { offset: 0x37FA6, size: 0x8, addend: 0x0, symName: __ZNSt6vectorIS_IS_IiSaIiEESaIS1_EESaIS3_EE11_S_max_sizeERKS4_, symObjAddr: 0x2944, symBinAddr: 0x1000030DC, symSize: 0x3C }
  - { offset: 0x37FF2, size: 0x8, addend: 0x0, symName: __ZSt20uninitialized_fill_nIPSt6vectorIS0_IiSaIiEESaIS2_EEmS4_ET_S6_T0_RKT1_, symObjAddr: 0x2918, symBinAddr: 0x1000030B0, symSize: 0x2C }
  - { offset: 0x38059, size: 0x8, addend: 0x0, symName: __ZSt18__do_uninit_fill_nIPSt6vectorIS0_IiSaIiEESaIS2_EEmS4_ET_S6_T0_RKT1_, symObjAddr: 0x2870, symBinAddr: 0x100003008, symSize: 0xA8 }
  - { offset: 0x3813B, size: 0x8, addend: 0x0, symName: __ZNSt19_UninitDestroyGuardIPSt6vectorIS0_IiSaIiEESaIS2_EEvEC1ERS5_, symObjAddr: 0x283C, symBinAddr: 0x100002FD4, symSize: 0x34 }
  - { offset: 0x381F8, size: 0x8, addend: 0x0, symName: __ZSt12__miter_baseIPSt6vectorIS0_IiSaIiEESaIS2_EEET_S6_, symObjAddr: 0x2828, symBinAddr: 0x100002FC0, symSize: 0x14 }
  - { offset: 0x3822B, size: 0x8, addend: 0x0, symName: __ZSt22__uninitialized_copy_aISt13move_iteratorIPSt6vectorIS1_IiSaIiEESaIS3_EEES7_S6_S5_ET1_T_T0_S8_RSaIT2_E, symObjAddr: 0x27C8, symBinAddr: 0x100002F60, symSize: 0x60 }
  - { offset: 0x382E6, size: 0x8, addend: 0x0, symName: __ZSt18make_move_iteratorIPSt6vectorIS0_IiSaIiEESaIS2_EEESt13move_iteratorIT_ES7_, symObjAddr: 0x27A0, symBinAddr: 0x100002F38, symSize: 0x28 }
  - { offset: 0x383D8, size: 0x8, addend: 0x0, symName: __ZNSt6vectorIS_IS_IiSaIiEESaIS1_EESaIS3_EE16_Temporary_value6_M_ptrEv, symObjAddr: 0x2780, symBinAddr: 0x100002F18, symSize: 0x20 }
  - { offset: 0x38440, size: 0x8, addend: 0x0, symName: __ZNSt6vectorIS_IS_IiSaIiEESaIS1_EESaIS3_EE16_Temporary_value8_StorageD1Ev, symObjAddr: 0x276C, symBinAddr: 0x100002F04, symSize: 0x14 }
  - { offset: 0x38480, size: 0x8, addend: 0x0, symName: __ZNSt6vectorIS_IS_IiSaIiEESaIS1_EESaIS3_EE16_Temporary_value8_StorageC1Ev, symObjAddr: 0x2750, symBinAddr: 0x100002EE8, symSize: 0x1C }
  - { offset: 0x384A2, size: 0x8, addend: 0x0, symName: __ZSt8_DestroyISt6vectorIiSaIiEEEvPT_, symObjAddr: 0x2730, symBinAddr: 0x100002EC8, symSize: 0x20 }
  - { offset: 0x384F2, size: 0x8, addend: 0x0, symName: __ZSt20uninitialized_fill_nIPSt6vectorIiSaIiEEmS2_ET_S4_T0_RKT1_, symObjAddr: 0x2704, symBinAddr: 0x100002E9C, symSize: 0x2C }
  - { offset: 0x38559, size: 0x8, addend: 0x0, symName: __ZSt18__do_uninit_fill_nIPSt6vectorIiSaIiEEmS2_ET_S4_T0_RKT1_, symObjAddr: 0x265C, symBinAddr: 0x100002DF4, symSize: 0xA8 }
  - { offset: 0x3863B, size: 0x8, addend: 0x0, symName: __ZNSt19_UninitDestroyGuardIPSt6vectorIiSaIiEEvEC1ERS3_, symObjAddr: 0x2628, symBinAddr: 0x100002DC0, symSize: 0x34 }
  - { offset: 0x3869C, size: 0x8, addend: 0x0, symName: __ZNSt12_Vector_baseISt6vectorIiSaIiEESaIS2_EE11_M_allocateEm, symObjAddr: 0x2550, symBinAddr: 0x100002CE8, symSize: 0xD8 }
  - { offset: 0x38764, size: 0x8, addend: 0x0, symName: __ZNSt12_Vector_baseISt6vectorIiSaIiEESaIS2_EE17_Vector_impl_dataC2Ev, symObjAddr: 0x2524, symBinAddr: 0x100002CBC, symSize: 0x2C }
  - { offset: 0x387A1, size: 0x8, addend: 0x0, symName: __ZSt10destroy_atIiEvPT_, symObjAddr: 0x2510, symBinAddr: 0x100002CA8, symSize: 0x14 }
  - { offset: 0x387F1, size: 0x8, addend: 0x0, symName: __ZSt25__uninitialized_default_nIPimET_S1_T0_, symObjAddr: 0x24C0, symBinAddr: 0x100002C58, symSize: 0x50 }
  - { offset: 0x38885, size: 0x8, addend: 0x0, symName: __ZNSt12_Vector_baseIiSaIiEE11_M_allocateEm, symObjAddr: 0x23FC, symBinAddr: 0x100002B94, symSize: 0xC4 }
  - { offset: 0x3894D, size: 0x8, addend: 0x0, symName: __ZNSt12_Vector_baseIiSaIiEE17_Vector_impl_dataC2Ev, symObjAddr: 0x23D0, symBinAddr: 0x100002B68, symSize: 0x2C }
  - { offset: 0x389EA, size: 0x8, addend: 0x0, symName: __ZNSt19__ptr_traits_ptr_toIPKcS0_Lb0EE10pointer_toERS0_, symObjAddr: 0x23A8, symBinAddr: 0x100002B40, symSize: 0x28 }
  - { offset: 0x38A94, size: 0x8, addend: 0x0, symName: __ZSt34__uninitialized_move_if_noexcept_aIPSt6vectorIS0_IiSaIiEESaIS2_EES5_SaIS4_EET0_T_S8_S7_RT1_, symObjAddr: 0x2358, symBinAddr: 0x100002AF0, symSize: 0x50 }
  - { offset: 0x38B10, size: 0x8, addend: 0x0, symName: __ZNSt12_Vector_baseISt6vectorIS0_IiSaIiEESaIS2_EESaIS4_EE11_M_allocateEm, symObjAddr: 0x2280, symBinAddr: 0x100002A18, symSize: 0xD8 }
  - { offset: 0x38BBE, size: 0x8, addend: 0x0, symName: __ZNKSt6vectorIS_IS_IiSaIiEESaIS1_EESaIS3_EE8max_sizeEv, symObjAddr: 0x2260, symBinAddr: 0x1000029F8, symSize: 0x20 }
  - { offset: 0x38BE4, size: 0x8, addend: 0x0, symName: __ZSt24__uninitialized_fill_n_aIPSt6vectorIS0_IiSaIiEESaIS2_EEmS4_S4_ET_S6_T0_RKT1_RSaIT2_E, symObjAddr: 0x2208, symBinAddr: 0x1000029A0, symSize: 0x58 }
  - { offset: 0x38CE5, size: 0x8, addend: 0x0, symName: __ZSt22__uninitialized_move_aIPSt6vectorIS0_IiSaIiEESaIS2_EES5_SaIS4_EET0_T_S8_S7_RT1_, symObjAddr: 0x21B8, symBinAddr: 0x100002950, symSize: 0x50 }
  - { offset: 0x38D61, size: 0x8, addend: 0x0, symName: __ZNSt12_Vector_baseISt6vectorIS0_IiSaIiEESaIS2_EESaIS4_EE19_M_get_Tp_allocatorEv, symObjAddr: 0x21A4, symBinAddr: 0x10000293C, symSize: 0x14 }
  - { offset: 0x38DBB, size: 0x8, addend: 0x0, symName: __ZNSt6vectorIS_IS_IiSaIiEESaIS1_EESaIS3_EE16_Temporary_valueD1Ev, symObjAddr: 0x2150, symBinAddr: 0x1000028E8, symSize: 0x54 }
  - { offset: 0x38E51, size: 0x8, addend: 0x0, symName: __ZNSt6vectorIS_IS_IiSaIiEESaIS1_EESaIS3_EE16_Temporary_valueC1IJRKS3_EEEPS5_DpOT_, symObjAddr: 0x20AC, symBinAddr: 0x100002844, symSize: 0xA4 }
  - { offset: 0x38F1A, size: 0x8, addend: 0x0, symName: __ZSt8_DestroyIPSt6vectorIiSaIiEEEvT_S4_, symObjAddr: 0x205C, symBinAddr: 0x1000027F4, symSize: 0x50 }
  - { offset: 0x38F7F, size: 0x8, addend: 0x0, symName: __ZSt24__uninitialized_fill_n_aIPSt6vectorIiSaIiEEmS2_S2_ET_S4_T0_RKT1_RSaIT2_E, symObjAddr: 0x2004, symBinAddr: 0x10000279C, symSize: 0x58 }
  - { offset: 0x38FFC, size: 0x8, addend: 0x0, symName: __ZNSt12_Vector_baseISt6vectorIiSaIiEESaIS2_EE13_M_deallocateEPS2_m, symObjAddr: 0x1F78, symBinAddr: 0x100002710, symSize: 0x8C }
  - { offset: 0x390CE, size: 0x8, addend: 0x0, symName: __ZNSt12_Vector_baseISt6vectorIiSaIiEESaIS2_EE17_M_create_storageEm, symObjAddr: 0x1F0C, symBinAddr: 0x1000026A4, symSize: 0x6C }
  - { offset: 0x39130, size: 0x8, addend: 0x0, symName: __ZNSt12_Vector_baseISt6vectorIiSaIiEESaIS2_EE12_Vector_implC1ERKS3_, symObjAddr: 0x1EC0, symBinAddr: 0x100002658, symSize: 0x4C }
  - { offset: 0x391D6, size: 0x8, addend: 0x0, symName: __ZNSt6vectorIS_IiSaIiEESaIS1_EE11_S_max_sizeERKS2_, symObjAddr: 0x1E84, symBinAddr: 0x10000261C, symSize: 0x3C }
  - { offset: 0x39222, size: 0x8, addend: 0x0, symName: __ZSt8_DestroyIPiEvT_S1_, symObjAddr: 0x1E28, symBinAddr: 0x1000025C0, symSize: 0x5C }
  - { offset: 0x392A0, size: 0x8, addend: 0x0, symName: __ZSt27__uninitialized_default_n_aIPimiET_S1_T0_RSaIT1_E, symObjAddr: 0x1E00, symBinAddr: 0x100002598, symSize: 0x28 }
  - { offset: 0x39303, size: 0x8, addend: 0x0, symName: __ZNSt12_Vector_baseIiSaIiEE13_M_deallocateEPim, symObjAddr: 0x1D74, symBinAddr: 0x10000250C, symSize: 0x8C }
  - { offset: 0x393D5, size: 0x8, addend: 0x0, symName: __ZNSt12_Vector_baseIiSaIiEE17_M_create_storageEm, symObjAddr: 0x1D14, symBinAddr: 0x1000024AC, symSize: 0x60 }
  - { offset: 0x39437, size: 0x8, addend: 0x0, symName: __ZNSt12_Vector_baseIiSaIiEE12_Vector_implC1ERKS0_, symObjAddr: 0x1CC8, symBinAddr: 0x100002460, symSize: 0x4C }
  - { offset: 0x394DD, size: 0x8, addend: 0x0, symName: __ZNSt6vectorIiSaIiEE11_S_max_sizeERKS0_, symObjAddr: 0x1C94, symBinAddr: 0x10000242C, symSize: 0x34 }
  - { offset: 0x39591, size: 0x8, addend: 0x0, symName: __ZNKSt7__cxx1112basic_stringIcSt11char_traitsIcESaIcEE13_M_local_dataEv, symObjAddr: 0x1C74, symBinAddr: 0x10000240C, symSize: 0x20 }
  - { offset: 0x395BB, size: 0x8, addend: 0x0, symName: __ZNSt6vectorIS_IS_IiSaIiEESaIS1_EESaIS3_EE15_M_erase_at_endEPS3_, symObjAddr: 0x1BE0, symBinAddr: 0x100002378, symSize: 0x94 }
  - { offset: 0x39650, size: 0x8, addend: 0x0, symName: __ZNSt6vectorIS_IS_IiSaIiEESaIS1_EESaIS3_EE14_M_fill_insertEN9__gnu_cxx17__normal_iteratorIPS3_S5_EEmRKS3_, symObjAddr: 0x15FC, symBinAddr: 0x100001D94, symSize: 0x5E4 }
  - { offset: 0x39B5D, size: 0x8, addend: 0x0, symName: __ZNKSt6vectorIS_IS_IiSaIiEESaIS1_EESaIS3_EE12_M_check_lenEmPKc, symObjAddr: 0x152C, symBinAddr: 0x100001CC4, symSize: 0xD0 }
  - { offset: 0x39BDE, size: 0x8, addend: 0x0, symName: __ZNSt6vectorIS_IS_IiSaIiEESaIS1_EESaIS3_EE3endEv, symObjAddr: 0x14FC, symBinAddr: 0x100001C94, symSize: 0x30 }
  - { offset: 0x39C6F, size: 0x8, addend: 0x0, symName: __ZNSt6vectorIS_IS_IiSaIiEESaIS1_EESaIS3_EE16_Temporary_value6_M_valEv, symObjAddr: 0x14E4, symBinAddr: 0x100001C7C, symSize: 0x18 }
  - { offset: 0x39CD4, size: 0x8, addend: 0x0, symName: __ZNSt12_Vector_baseISt6vectorIiSaIiEESaIS2_EE19_M_get_Tp_allocatorEv, symObjAddr: 0x14D0, symBinAddr: 0x100001C68, symSize: 0x14 }
  - { offset: 0x39CFE, size: 0x8, addend: 0x0, symName: __ZNSt6vectorIS_IiSaIiEESaIS1_EE18_M_fill_initializeEmRKS1_, symObjAddr: 0x1478, symBinAddr: 0x100001C10, symSize: 0x58 }
  - { offset: 0x39D64, size: 0x8, addend: 0x0, symName: __ZNSt12_Vector_baseISt6vectorIiSaIiEESaIS2_EED2Ev, symObjAddr: 0x141C, symBinAddr: 0x100001BB4, symSize: 0x5C }
  - { offset: 0x39DC0, size: 0x8, addend: 0x0, symName: __ZNSt12_Vector_baseISt6vectorIiSaIiEESaIS2_EEC2EmRKS3_, symObjAddr: 0x13C8, symBinAddr: 0x100001B60, symSize: 0x54 }
  - { offset: 0x39E15, size: 0x8, addend: 0x0, symName: __ZNSt12_Vector_baseISt6vectorIiSaIiEESaIS2_EE12_Vector_implD1Ev, symObjAddr: 0x13A8, symBinAddr: 0x100001B40, symSize: 0x20 }
  - { offset: 0x39E5A, size: 0x8, addend: 0x0, symName: __ZNSt6vectorIS_IiSaIiEESaIS1_EE17_S_check_init_lenEmRKS2_, symObjAddr: 0x1334, symBinAddr: 0x100001ACC, symSize: 0x74 }
  - { offset: 0x39F61, size: 0x8, addend: 0x0, symName: __ZNSt12_Vector_baseIiSaIiEE19_M_get_Tp_allocatorEv, symObjAddr: 0x1320, symBinAddr: 0x100001AB8, symSize: 0x14 }
  - { offset: 0x39F8B, size: 0x8, addend: 0x0, symName: __ZNSt6vectorIiSaIiEE21_M_default_initializeEm, symObjAddr: 0x12D0, symBinAddr: 0x100001A68, symSize: 0x50 }
  - { offset: 0x39FE0, size: 0x8, addend: 0x0, symName: __ZNSt12_Vector_baseIiSaIiEED2Ev, symObjAddr: 0x1280, symBinAddr: 0x100001A18, symSize: 0x50 }
  - { offset: 0x3A03C, size: 0x8, addend: 0x0, symName: __ZNSt12_Vector_baseIiSaIiEEC2EmRKS0_, symObjAddr: 0x122C, symBinAddr: 0x1000019C4, symSize: 0x54 }
  - { offset: 0x3A091, size: 0x8, addend: 0x0, symName: __ZNSt12_Vector_baseIiSaIiEE12_Vector_implD1Ev, symObjAddr: 0x120C, symBinAddr: 0x1000019A4, symSize: 0x20 }
  - { offset: 0x3A0D6, size: 0x8, addend: 0x0, symName: __ZNSt6vectorIiSaIiEE17_S_check_init_lenEmRKS0_, symObjAddr: 0x1198, symBinAddr: 0x100001930, symSize: 0x74 }
  - { offset: 0x3A1A2, size: 0x8, addend: 0x0, symName: __ZNKSt6vectorIiSaIiEE4sizeEv, symObjAddr: 0x1158, symBinAddr: 0x1000018F0, symSize: 0x40 }
  - { offset: 0x3A1DD, size: 0x8, addend: 0x0, symName: __ZNKSt6vectorIS_IiSaIiEESaIS1_EE4sizeEv, symObjAddr: 0x110C, symBinAddr: 0x1000018A4, symSize: 0x4C }
  - { offset: 0x3A218, size: 0x8, addend: 0x0, symName: __ZNKSt6vectorIS_IS_IiSaIiEESaIS1_EESaIS3_EE4sizeEv, symObjAddr: 0x10C0, symBinAddr: 0x100001858, symSize: 0x4C }
  - { offset: 0x3A253, size: 0x8, addend: 0x0, symName: __ZNSt12_Vector_baseISt6vectorIS0_IiSaIiEESaIS2_EESaIS4_EE13_M_deallocateEPS4_m, symObjAddr: 0x1034, symBinAddr: 0x1000017CC, symSize: 0x8C }
  - { offset: 0x3A325, size: 0x8, addend: 0x0, symName: __ZNSt7__cxx1112basic_stringIcSt11char_traitsIcESaIcEE10_M_destroyEm, symObjAddr: 0xF9C, symBinAddr: 0x100001734, symSize: 0x98 }
  - { offset: 0x3A3E5, size: 0x8, addend: 0x0, symName: __ZNKSt7__cxx1112basic_stringIcSt11char_traitsIcESaIcEE11_M_is_localEv, symObjAddr: 0xF34, symBinAddr: 0x1000016CC, symSize: 0x68 }
  - { offset: 0x3A40F, size: 0x8, addend: 0x0, symName: __ZNSt7__cxx1112basic_stringIcSt11char_traitsIcESaIcEE10_M_disposeEv, symObjAddr: 0xEEC, symBinAddr: 0x100001684, symSize: 0x48 }
  - { offset: 0x3A439, size: 0x8, addend: 0x0, symName: __ZNSt7__cxx1112basic_stringIcSt11char_traitsIcESaIcEE9_M_lengthEm, symObjAddr: 0xEC8, symBinAddr: 0x100001660, symSize: 0x24 }
  - { offset: 0x3A473, size: 0x8, addend: 0x0, symName: __ZNKSt7__cxx1112basic_stringIcSt11char_traitsIcESaIcEE7_M_dataEv, symObjAddr: 0xEB0, symBinAddr: 0x100001648, symSize: 0x18 }
  - { offset: 0x3A4C2, size: 0x8, addend: 0x0, symName: __ZNSt7__cxx1112basic_stringIcSt11char_traitsIcESaIcEEixEm, symObjAddr: 0xE2C, symBinAddr: 0x1000015C4, symSize: 0x84 }
  - { offset: 0x3A51A, size: 0x8, addend: 0x0, symName: __ZNSt6vectorIS_IS_IiSaIiEESaIS1_EESaIS3_EE6resizeEmRKS3_, symObjAddr: 0xD50, symBinAddr: 0x1000014E8, symSize: 0xDC }
  - { offset: 0x3A580, size: 0x8, addend: 0x0, symName: __ZNSt6vectorIS_IiSaIiEESaIS1_EED1Ev, symObjAddr: 0xCF4, symBinAddr: 0x10000148C, symSize: 0x5C }
  - { offset: 0x3A620, size: 0x8, addend: 0x0, symName: __ZNSt6vectorIS_IiSaIiEESaIS1_EEC1EmRKS1_RKS2_, symObjAddr: 0xC84, symBinAddr: 0x10000141C, symSize: 0x70 }
  - { offset: 0x3A6A7, size: 0x8, addend: 0x0, symName: __ZNSt6vectorIiSaIiEED1Ev, symObjAddr: 0xC28, symBinAddr: 0x1000013C0, symSize: 0x5C }
  - { offset: 0x3A739, size: 0x8, addend: 0x0, symName: __ZNSt6vectorIiSaIiEEC1EmRKS0_, symObjAddr: 0xBC0, symBinAddr: 0x100001358, symSize: 0x68 }
  - { offset: 0x3A79D, size: 0x8, addend: 0x0, symName: __ZNSt6vectorIiSaIiEEixEm, symObjAddr: 0xB3C, symBinAddr: 0x1000012D4, symSize: 0x84 }
  - { offset: 0x3A7F3, size: 0x8, addend: 0x0, symName: __ZNSt6vectorIS_IiSaIiEESaIS1_EEixEm, symObjAddr: 0xAAC, symBinAddr: 0x100001244, symSize: 0x90 }
  - { offset: 0x3A849, size: 0x8, addend: 0x0, symName: __ZNSt6vectorIS_IS_IiSaIiEESaIS1_EESaIS3_EEixEm, symObjAddr: 0xA1C, symBinAddr: 0x1000011B4, symSize: 0x90 }
  - { offset: 0x3A8BB, size: 0x8, addend: 0x0, symName: __ZNSt12_Vector_baseISt6vectorIS0_IiSaIiEESaIS2_EESaIS4_EED2Ev, symObjAddr: 0x9C0, symBinAddr: 0x100001158, symSize: 0x5C }
  - { offset: 0x3A8F7, size: 0x8, addend: 0x0, symName: __ZNSt7__cxx1112basic_stringIcSt11char_traitsIcESaIcEE16_M_get_allocatorEv, symObjAddr: 0x9AC, symBinAddr: 0x100001144, symSize: 0x14 }
  - { offset: 0x3A921, size: 0x8, addend: 0x0, symName: __ZNKSt7__cxx1112basic_stringIcSt11char_traitsIcESaIcEE8max_sizeEv, symObjAddr: 0x974, symBinAddr: 0x10000110C, symSize: 0x38 }
  - { offset: 0x3A969, size: 0x8, addend: 0x0, symName: __ZSt3maxImERKT_S2_S2_, symObjAddr: 0x93C, symBinAddr: 0x1000010D4, symSize: 0x38 }
  - { offset: 0x3A9CB, size: 0x8, addend: 0x0, symName: __ZNSt7__cxx1112basic_stringIcSt11char_traitsIcESaIcEED1Ev, symObjAddr: 0x914, symBinAddr: 0x1000010AC, symSize: 0x28 }
  - { offset: 0x3A9F1, size: 0x8, addend: 0x0, symName: __ZNSt7__cxx1112basic_stringIcSt11char_traitsIcESaIcEE13_M_set_lengthEm, symObjAddr: 0x8CC, symBinAddr: 0x100001064, symSize: 0x48 }
  - { offset: 0x3AA28, size: 0x8, addend: 0x0, symName: __ZSt12construct_atIcJRKcEQaant20is_unbounded_array_vIT_ErqXgsnwcvPvLi0E_S2_pispcl7declvalIT0_EEEEEPS2_S5_DpOS4_, symObjAddr: 0x85C, symBinAddr: 0x100000FF4, symSize: 0x70 }
  - { offset: 0x3AAB2, size: 0x8, addend: 0x0, symName: _main, symObjAddr: 0x4FC, symBinAddr: 0x100000C94, symSize: 0x360 }
  - { offset: 0x3AC85, size: 0x8, addend: 0x0, symName: __Z10does_existii, symObjAddr: 0x404, symBinAddr: 0x100000B9C, symSize: 0xF8 }
  - { offset: 0x3AD55, size: 0x8, addend: 0x0, symName: __Z7get_sumiiiii, symObjAddr: 0x2AC, symBinAddr: 0x100000A44, symSize: 0x158 }
  - { offset: 0x3ADDF, size: 0x8, addend: 0x0, symName: __ZNSt12_Vector_baseISt6vectorIS0_IiSaIiEESaIS2_EESaIS4_EE12_Vector_implD1Ev, symObjAddr: 0x28C, symBinAddr: 0x100000A24, symSize: 0x20 }
  - { offset: 0x3AE28, size: 0x8, addend: 0x0, symName: __ZNKSt7__cxx1112basic_stringIcSt11char_traitsIcESaIcEE4sizeEv, symObjAddr: 0x23C, symBinAddr: 0x1000009D4, symSize: 0x50 }
  - { offset: 0x3AE5F, size: 0x8, addend: 0x0, symName: __ZSt3minImERKT_S2_S2_, symObjAddr: 0x204, symBinAddr: 0x10000099C, symSize: 0x38 }
  - { offset: 0x3AF79, size: 0x8, addend: 0x0, symName: __ZNSt7__cxx1112basic_stringIcSt11char_traitsIcESaIcEE12_Alloc_hiderC1EPcOS3_, symObjAddr: 0x1AC, symBinAddr: 0x100000944, symSize: 0x58 }
  - { offset: 0x3B091, size: 0x8, addend: 0x0, symName: __ZNSt19__ptr_traits_ptr_toIPccLb0EE10pointer_toERc, symObjAddr: 0x184, symBinAddr: 0x10000091C, symSize: 0x28 }
  - { offset: 0x3B104, size: 0x8, addend: 0x0, symName: __ZNSt7__cxx1112basic_stringIcSt11char_traitsIcESaIcEE13_M_local_dataEv, symObjAddr: 0x164, symBinAddr: 0x1000008FC, symSize: 0x20 }
  - { offset: 0x3B148, size: 0x8, addend: 0x0, symName: __ZNSt7__cxx1112basic_stringIcSt11char_traitsIcESaIcEEC1EvQ26is_default_constructible_vIT1_E, symObjAddr: 0xB8, symBinAddr: 0x100000850, symSize: 0xAC }
  - { offset: 0x3B234, size: 0x8, addend: 0x0, symName: __ZNSt7__cxx1112basic_stringIcSt11char_traitsIcESaIcEE12_Alloc_hiderD1Ev, symObjAddr: 0x98, symBinAddr: 0x100000830, symSize: 0x20 }
  - { offset: 0x3B279, size: 0x8, addend: 0x0, symName: __ZNSt11char_traitsIcE6assignERcRKc, symObjAddr: 0x4C, symBinAddr: 0x1000007E4, symSize: 0x4C }
  - { offset: 0x3B2CE, size: 0x8, addend: 0x0, symName: __ZSt17__size_to_integerm, symObjAddr: 0x38, symBinAddr: 0x1000007D0, symSize: 0x14 }
  - { offset: 0x3B2FF, size: 0x8, addend: 0x0, symName: __ZdlPvS_, symObjAddr: 0x20, symBinAddr: 0x1000007B8, symSize: 0x18 }
  - { offset: 0x3B335, size: 0x8, addend: 0x0, symName: __ZnwmPv, symObjAddr: 0x8, symBinAddr: 0x1000007A0, symSize: 0x18 }
  - { offset: 0x3B367, size: 0x8, addend: 0x0, symName: __ZSt21is_constant_evaluatedv, symObjAddr: 0x0, symBinAddr: 0x100000798, symSize: 0x8 }
...
