---
triple:          'arm64-apple-darwin'
binary-path:     '/Users/dominik/Desktop/files/c++/competitive-programming/oij/etap_2/XV/roz'
relocations:
  - { offset: 0x314E0, size: 0x8, addend: 0x0, symName: __ZStL8__ioinit, symObjAddr: 0xF0F28, symBinAddr: 0x10000C004, symSize: 0x0 }
  - { offset: 0x31FAF, size: 0x8, addend: 0x0, symName: _reached, symObjAddr: 0xF0F30, symBinAddr: 0x10000C008, symSize: 0x0 }
  - { offset: 0x31FC6, size: 0x8, addend: 0x0, symName: _cnt, symObjAddr: 0x4234, symBinAddr: 0x10000C000, symSize: 0x0 }
  - { offset: 0x326F7, size: 0x8, addend: 0x0, symName: __GLOBAL__sub_I_roz.cpp, symObjAddr: 0x44E4, symBinAddr: 0x100004A7C, symSize: 0x14 }
  - { offset: 0x3270F, size: 0x8, addend: 0x0, symName: __Z41__static_initialization_and_destruction_0v, symObjAddr: 0x4480, symBinAddr: 0x100004A18, symSize: 0x64 }
  - { offset: 0x32748, size: 0x8, addend: 0x0, symName: __ZNSt13unordered_setIiSt4hashIiESt8equal_toIiESaIiEED1Ev, symObjAddr: 0x4210, symBinAddr: 0x1000049F8, symSize: 0x20 }
  - { offset: 0x32787, size: 0x8, addend: 0x0, symName: __ZSt9__advanceIPilEvRT_T0_St26random_access_iterator_tag, symObjAddr: 0x41D8, symBinAddr: 0x1000049C0, symSize: 0x38 }
  - { offset: 0x32825, size: 0x8, addend: 0x0, symName: __ZNSt15__new_allocatorIPNSt8__detail15_Hash_node_baseEE8allocateEmPKv, symObjAddr: 0x415C, symBinAddr: 0x100004944, symSize: 0x7C }
  - { offset: 0x32953, size: 0x8, addend: 0x0, symName: __ZNK9__gnu_cxx5__ops14_Iter_less_valclINS_17__normal_iteratorIPiSt6vectorIiSaIiEEEEiEEbT_RT0_, symObjAddr: 0x4128, symBinAddr: 0x100004910, symSize: 0x34 }
  - { offset: 0x329EE, size: 0x8, addend: 0x0, symName: __ZSt23__copy_move_backward_a2ILb1EPiS0_ET1_T0_S2_S1_, symObjAddr: 0x3FD0, symBinAddr: 0x1000047B8, symSize: 0x158 }
  - { offset: 0x32BF5, size: 0x8, addend: 0x0, symName: __ZSt11__push_heapIN9__gnu_cxx17__normal_iteratorIPiSt6vectorIiSaIiEEEEliNS0_5__ops14_Iter_less_valEEvT_T0_SA_T1_RT2_, symObjAddr: 0x3E40, symBinAddr: 0x100004628, symSize: 0x190 }
  - { offset: 0x32F52, size: 0x8, addend: 0x0, symName: __ZNK9__gnu_cxx16__aligned_bufferIiE7_M_addrEv, symObjAddr: 0x3E2C, symBinAddr: 0x100004614, symSize: 0x14 }
  - { offset: 0x32F78, size: 0x8, addend: 0x0, symName: __ZSt12__niter_wrapIN9__gnu_cxx17__normal_iteratorIPiSt6vectorIiSaIiEEEES2_ET_S7_T0_, symObjAddr: 0x3DCC, symBinAddr: 0x1000045B4, symSize: 0x60 }
  - { offset: 0x330F5, size: 0x8, addend: 0x0, symName: __ZSt4swapIiENSt9enable_ifIXsrSt6__and_IJSt6__not_ISt15__is_tuple_likeIT_EESt21is_move_constructibleIS4_ESt18is_move_assignableIS4_EEE5valueEvE4typeERS4_SE_, symObjAddr: 0x3D78, symBinAddr: 0x100004560, symSize: 0x54 }
  - { offset: 0x331AD, size: 0x8, addend: 0x0, symName: __ZSt13__adjust_heapIN9__gnu_cxx17__normal_iteratorIPiSt6vectorIiSaIiEEEEliNS0_5__ops15_Iter_less_iterEEvT_T0_SA_T1_T2_, symObjAddr: 0x3B0C, symBinAddr: 0x1000042F4, symSize: 0x26C }
  - { offset: 0x33538, size: 0x8, addend: 0x0, symName: __ZSt19__relocate_object_aIiiSaIiEEvPT_PT0_RT1_, symObjAddr: 0x3A8C, symBinAddr: 0x100004274, symSize: 0x80 }
  - { offset: 0x336B7, size: 0x8, addend: 0x0, symName: __ZNSt8__detail16_Hashtable_allocISaINS_10_Hash_nodeIiLb0EEEEE19_M_allocate_bucketsEm, symObjAddr: 0x3984, symBinAddr: 0x10000416C, symSize: 0x108 }
  - { offset: 0x33892, size: 0x8, addend: 0x0, symName: __ZNSt15__new_allocatorINSt8__detail10_Hash_nodeIiLb0EEEE8allocateEmPKv, symObjAddr: 0x3908, symBinAddr: 0x1000040F0, symSize: 0x7C }
  - { offset: 0x33908, size: 0x8, addend: 0x0, symName: __ZNK9__gnu_cxx16__aligned_bufferIiE6_M_ptrEv, symObjAddr: 0x38EC, symBinAddr: 0x1000040D4, symSize: 0x1C }
  - { offset: 0x33932, size: 0x8, addend: 0x0, symName: __ZNSt15__new_allocatorIPNSt8__detail15_Hash_node_baseEE10deallocateEPS2_m, symObjAddr: 0x38BC, symBinAddr: 0x1000040A4, symSize: 0x30 }
  - { offset: 0x339A1, size: 0x8, addend: 0x0, symName: __ZNSt15__new_allocatorINSt8__detail10_Hash_nodeIiLb0EEEE10deallocateEPS2_m, symObjAddr: 0x388C, symBinAddr: 0x100004074, symSize: 0x30 }
  - { offset: 0x33A1C, size: 0x8, addend: 0x0, symName: __ZNK9__gnu_cxx5__ops14_Val_less_iterclIiNS_17__normal_iteratorIPiSt6vectorIiSaIiEEEEEEbRT_T0_, symObjAddr: 0x3858, symBinAddr: 0x100004040, symSize: 0x34 }
  - { offset: 0x33AE2, size: 0x8, addend: 0x0, symName: __ZSt12__miter_baseIN9__gnu_cxx17__normal_iteratorIPiSt6vectorIiSaIiEEEEET_S7_, symObjAddr: 0x3844, symBinAddr: 0x10000402C, symSize: 0x14 }
  - { offset: 0x33B15, size: 0x8, addend: 0x0, symName: __ZSt9iter_swapIN9__gnu_cxx17__normal_iteratorIPiSt6vectorIiSaIiEEEES6_EvT_T0_, symObjAddr: 0x381C, symBinAddr: 0x100004004, symSize: 0x28 }
  - { offset: 0x33BBD, size: 0x8, addend: 0x0, symName: __ZSt10__pop_heapIN9__gnu_cxx17__normal_iteratorIPiSt6vectorIiSaIiEEEENS0_5__ops15_Iter_less_iterEEvT_S9_S9_RT0_, symObjAddr: 0x3784, symBinAddr: 0x100003F6C, symSize: 0x98 }
  - { offset: 0x33D90, size: 0x8, addend: 0x0, symName: __ZSt11__make_heapIN9__gnu_cxx17__normal_iteratorIPiSt6vectorIiSaIiEEEENS0_5__ops15_Iter_less_iterEEvT_S9_RT0_, symObjAddr: 0x3650, symBinAddr: 0x100003E38, symSize: 0x134 }
  - { offset: 0x33FF6, size: 0x8, addend: 0x0, symName: __ZSt14__relocate_a_1IPiN9__gnu_cxx17__normal_iteratorIS0_vEESaIiEET0_T_S6_S5_RT1_, symObjAddr: 0x35D4, symBinAddr: 0x100003DBC, symSize: 0x7C }
  - { offset: 0x3410D, size: 0x8, addend: 0x0, symName: __ZNSt15__new_allocatorIiE8allocateEmPKv, symObjAddr: 0x3558, symBinAddr: 0x100003D40, symSize: 0x7C }
  - { offset: 0x34183, size: 0x8, addend: 0x0, symName: __ZNSt10_HashtableIiiSaIiENSt8__detail9_IdentityESt8equal_toIiESt4hashIiENS1_18_Mod_range_hashingENS1_20_Default_ranged_hashENS1_20_Prime_rehash_policyENS1_17_Hashtable_traitsILb0ELb1ELb1EEEE19_M_allocate_bucketsEm, symObjAddr: 0x3500, symBinAddr: 0x100003CE8, symSize: 0x58 }
  - { offset: 0x341D8, size: 0x8, addend: 0x0, symName: __ZSt12construct_atIiJiEQaant20is_unbounded_array_vIT_ErqXgsnwcvPvLi0E_S0_pispcl7declvalIT0_EEEEEPS0_S3_DpOS2_, symObjAddr: 0x3490, symBinAddr: 0x100003C78, symSize: 0x70 }
  - { offset: 0x34282, size: 0x8, addend: 0x0, symName: __ZNKSt8__detail15_Hash_code_baseIiiNS_9_IdentityESt4hashIiENS_18_Mod_range_hashingENS_20_Default_ranged_hashELb0EE15_M_bucket_indexERKNS_16_Hash_node_valueIiLb0EEEm, symObjAddr: 0x342C, symBinAddr: 0x100003C14, symSize: 0x64 }
  - { offset: 0x34403, size: 0x8, addend: 0x0, symName: __ZN9__gnu_cxx16__aligned_bufferIiE7_M_addrEv, symObjAddr: 0x3418, symBinAddr: 0x100003C00, symSize: 0x14 }
  - { offset: 0x34429, size: 0x8, addend: 0x0, symName: __ZSt25__unguarded_linear_insertIN9__gnu_cxx17__normal_iteratorIPiSt6vectorIiSaIiEEEENS0_5__ops14_Val_less_iterEEvT_T0_, symObjAddr: 0x3374, symBinAddr: 0x100003B5C, symSize: 0xA4 }
  - { offset: 0x3461B, size: 0x8, addend: 0x0, symName: __ZNK9__gnu_cxx5__ops15_Iter_less_iterclINS_17__normal_iteratorIPiSt6vectorIiSaIiEEEES8_EEbT_T0_, symObjAddr: 0x3340, symBinAddr: 0x100003B28, symSize: 0x34 }
  - { offset: 0x346C9, size: 0x8, addend: 0x0, symName: __ZSt21__unguarded_partitionIN9__gnu_cxx17__normal_iteratorIPiSt6vectorIiSaIiEEEENS0_5__ops15_Iter_less_iterEET_S9_S9_S9_T0_, symObjAddr: 0x3240, symBinAddr: 0x100003A28, symSize: 0x100 }
  - { offset: 0x3482B, size: 0x8, addend: 0x0, symName: __ZSt22__move_median_to_firstIN9__gnu_cxx17__normal_iteratorIPiSt6vectorIiSaIiEEEENS0_5__ops15_Iter_less_iterEEvT_S9_S9_S9_T0_, symObjAddr: 0x3130, symBinAddr: 0x100003918, symSize: 0x110 }
  - { offset: 0x348A6, size: 0x8, addend: 0x0, symName: __ZSt11__sort_heapIN9__gnu_cxx17__normal_iteratorIPiSt6vectorIiSaIiEEEENS0_5__ops15_Iter_less_iterEEvT_S9_RT0_, symObjAddr: 0x30A4, symBinAddr: 0x10000388C, symSize: 0x8C }
  - { offset: 0x34994, size: 0x8, addend: 0x0, symName: __ZSt13__heap_selectIN9__gnu_cxx17__normal_iteratorIPiSt6vectorIiSaIiEEEENS0_5__ops15_Iter_less_iterEEvT_S9_S9_T0_, symObjAddr: 0x2FD4, symBinAddr: 0x1000037BC, symSize: 0xD0 }
  - { offset: 0x34B04, size: 0x8, addend: 0x0, symName: __ZNKSt8__detail10_Synth3wayclIPiS2_EEDaRKT_RKT0_QrqXltfL0p_fL0p0_RNS_18__boolean_testableEXltfL0p0_fL0p_RNS_18__boolean_testableEE, symObjAddr: 0x2F78, symBinAddr: 0x100003760, symSize: 0x5C }
  - { offset: 0x34B5E, size: 0x8, addend: 0x0, symName: __ZSt14__relocate_a_1IiiENSt9enable_ifIXsrSt24__is_bitwise_relocatableIT_vE5valueEPS2_E4typeES4_S4_S4_RSaIT0_E, symObjAddr: 0x2ED0, symBinAddr: 0x1000036B8, symSize: 0xA8 }
  - { offset: 0x34CB4, size: 0x8, addend: 0x0, symName: __ZNSt15__new_allocatorIiE10deallocateEPim, symObjAddr: 0x2EA0, symBinAddr: 0x100003688, symSize: 0x30 }
  - { offset: 0x34D6B, size: 0x8, addend: 0x0, symName: __ZNSt10_HashtableIiiSaIiENSt8__detail9_IdentityESt8equal_toIiESt4hashIiENS1_18_Mod_range_hashingENS1_20_Default_ranged_hashENS1_20_Prime_rehash_policyENS1_17_Hashtable_traitsILb0ELb1ELb1EEEE22_M_insert_bucket_beginEmPNS1_10_Hash_nodeIiLb0EEE, symObjAddr: 0x2D94, symBinAddr: 0x10000357C, symSize: 0x10C }
  - { offset: 0x34DB7, size: 0x8, addend: 0x0, symName: __ZNKSt10_HashtableIiiSaIiENSt8__detail9_IdentityESt8equal_toIiESt4hashIiENS1_18_Mod_range_hashingENS1_20_Default_ranged_hashENS1_20_Prime_rehash_policyENS1_17_Hashtable_traitsILb0ELb1ELb1EEEE13_M_store_codeERNS1_16_Hash_node_valueIiLb0EEEm, symObjAddr: 0x2D78, symBinAddr: 0x100003560, symSize: 0x1C }
  - { offset: 0x34E03, size: 0x8, addend: 0x0, symName: __ZNSt10_HashtableIiiSaIiENSt8__detail9_IdentityESt8equal_toIiESt4hashIiENS1_18_Mod_range_hashingENS1_20_Default_ranged_hashENS1_20_Prime_rehash_policyENS1_17_Hashtable_traitsILb0ELb1ELb1EEEE9_M_rehashEmSt17integral_constantIbLb1EE, symObjAddr: 0x2C0C, symBinAddr: 0x1000033F4, symSize: 0x16C }
  - { offset: 0x34ECA, size: 0x8, addend: 0x0, symName: __ZNSt8__detail17_RehashStateGuardINS_20_Prime_rehash_policyEED1Ev, symObjAddr: 0x2BC8, symBinAddr: 0x1000033B0, symSize: 0x44 }
  - { offset: 0x34F18, size: 0x8, addend: 0x0, symName: __ZNSt8__detail17_RehashStateGuardINS_20_Prime_rehash_policyEEC1ERS1_, symObjAddr: 0x2B84, symBinAddr: 0x10000336C, symSize: 0x44 }
  - { offset: 0x35046, size: 0x8, addend: 0x0, symName: __ZNKSt10_HashtableIiiSaIiENSt8__detail9_IdentityESt8equal_toIiESt4hashIiENS1_18_Mod_range_hashingENS1_20_Default_ranged_hashENS1_20_Prime_rehash_policyENS1_17_Hashtable_traitsILb0ELb1ELb1EEEE15_M_bucket_indexERKNS1_16_Hash_node_valueIiLb0EEE, symObjAddr: 0x2B54, symBinAddr: 0x10000333C, symSize: 0x30 }
  - { offset: 0x35081, size: 0x8, addend: 0x0, symName: __ZNKSt8__detail15_Hashtable_baseIiiNS_9_IdentityESt8equal_toIiESt4hashIiENS_18_Mod_range_hashingENS_20_Default_ranged_hashENS_17_Hashtable_traitsILb0ELb1ELb1EEEE9_M_equalsERKimRKNS_16_Hash_node_valueIiLb0EEE, symObjAddr: 0x2B24, symBinAddr: 0x10000330C, symSize: 0x30 }
  - { offset: 0x350DE, size: 0x8, addend: 0x0, symName: __ZNKSt8__detail15_Hash_code_baseIiiNS_9_IdentityESt4hashIiENS_18_Mod_range_hashingENS_20_Default_ranged_hashELb0EE15_M_bucket_indexEmm, symObjAddr: 0x2AF8, symBinAddr: 0x1000032E0, symSize: 0x2C }
  - { offset: 0x3512A, size: 0x8, addend: 0x0, symName: __ZNKSt8equal_toIiEclERKiS2_, symObjAddr: 0x2AC4, symBinAddr: 0x1000032AC, symSize: 0x34 }
  - { offset: 0x3518C, size: 0x8, addend: 0x0, symName: __ZNKSt8__detail15_Hashtable_baseIiiNS_9_IdentityESt8equal_toIiESt4hashIiENS_18_Mod_range_hashingENS_20_Default_ranged_hashENS_17_Hashtable_traitsILb0ELb1ELb1EEEE5_M_eqEv, symObjAddr: 0x2AB0, symBinAddr: 0x100003298, symSize: 0x14 }
  - { offset: 0x351D0, size: 0x8, addend: 0x0, symName: __ZNSt8__detail22_Hashtable_hash_traitsISt4hashIiEE22__small_size_thresholdEv, symObjAddr: 0x2AA8, symBinAddr: 0x100003290, symSize: 0x8 }
  - { offset: 0x35254, size: 0x8, addend: 0x0, symName: __ZNSt19__ptr_traits_ptr_toIPPNSt8__detail15_Hash_node_baseES2_Lb0EE10pointer_toERS2_, symObjAddr: 0x2A80, symBinAddr: 0x100003268, symSize: 0x28 }
  - { offset: 0x352F5, size: 0x8, addend: 0x0, symName: __ZNSt19__ptr_traits_ptr_toIPNSt8__detail10_Hash_nodeIiLb0EEES2_Lb0EE10pointer_toERS2_, symObjAddr: 0x2A58, symBinAddr: 0x100003240, symSize: 0x28 }
  - { offset: 0x35368, size: 0x8, addend: 0x0, symName: __ZN9__gnu_cxx16__aligned_bufferIiE6_M_ptrEv, symObjAddr: 0x2A3C, symBinAddr: 0x100003224, symSize: 0x1C }
  - { offset: 0x353C8, size: 0x8, addend: 0x0, symName: __ZSt26__unguarded_insertion_sortIN9__gnu_cxx17__normal_iteratorIPiSt6vectorIiSaIiEEEENS0_5__ops15_Iter_less_iterEEvT_S9_T0_, symObjAddr: 0x29A0, symBinAddr: 0x100003188, symSize: 0x9C }
  - { offset: 0x354DA, size: 0x8, addend: 0x0, symName: __ZSt16__insertion_sortIN9__gnu_cxx17__normal_iteratorIPiSt6vectorIiSaIiEEEENS0_5__ops15_Iter_less_iterEEvT_S9_T0_, symObjAddr: 0x278C, symBinAddr: 0x100002F74, symSize: 0x214 }
  - { offset: 0x3594D, size: 0x8, addend: 0x0, symName: __ZSt27__unguarded_partition_pivotIN9__gnu_cxx17__normal_iteratorIPiSt6vectorIiSaIiEEEENS0_5__ops15_Iter_less_iterEET_S9_S9_T0_, symObjAddr: 0x2654, symBinAddr: 0x100002E3C, symSize: 0x138 }
  - { offset: 0x35B73, size: 0x8, addend: 0x0, symName: __ZSt14__partial_sortIN9__gnu_cxx17__normal_iteratorIPiSt6vectorIiSaIiEEEENS0_5__ops15_Iter_less_iterEEvT_S9_S9_T0_, symObjAddr: 0x2608, symBinAddr: 0x100002DF0, symSize: 0x4C }
  - { offset: 0x35BE2, size: 0x8, addend: 0x0, symName: __ZSt12__relocate_aIPiS0_SaIiEET0_T_S3_S2_RT1_, symObjAddr: 0x25BC, symBinAddr: 0x100002DA4, symSize: 0x4C }
  - { offset: 0x35CEA, size: 0x8, addend: 0x0, symName: __ZSt10destroy_atIiEvPT_, symObjAddr: 0x25A8, symBinAddr: 0x100002D90, symSize: 0x14 }
  - { offset: 0x35D6E, size: 0x8, addend: 0x0, symName: __ZNSt8__detail16_Hashtable_allocISaINS_10_Hash_nodeIiLb0EEEEE16_M_allocate_nodeIJRKiEEEPS2_DpOT_, symObjAddr: 0x243C, symBinAddr: 0x100002C24, symSize: 0x16C }
  - { offset: 0x35F58, size: 0x8, addend: 0x0, symName: __ZNKSt8__detail9_IdentityclIRKiEEOT_S5_, symObjAddr: 0x241C, symBinAddr: 0x100002C04, symSize: 0x20 }
  - { offset: 0x3600D, size: 0x8, addend: 0x0, symName: __ZNSt4pairINSt8__detail14_Node_iteratorIiLb1ELb0EEEbEC1IRS2_bEEOT_OT0_, symObjAddr: 0x23D0, symBinAddr: 0x100002BB8, symSize: 0x4C }
  - { offset: 0x3609F, size: 0x8, addend: 0x0, symName: __ZNSt10_HashtableIiiSaIiENSt8__detail9_IdentityESt8equal_toIiESt4hashIiENS1_18_Mod_range_hashingENS1_20_Default_ranged_hashENS1_20_Prime_rehash_policyENS1_17_Hashtable_traitsILb0ELb1ELb1EEEE21_M_insert_unique_nodeEmmPNS1_10_Hash_nodeIiLb0EEEm, symObjAddr: 0x22C0, symBinAddr: 0x100002AA8, symSize: 0x110 }
  - { offset: 0x3617A, size: 0x8, addend: 0x0, symName: __ZNSt4pairINSt8__detail14_Node_iteratorIiLb1ELb0EEEbEC1IS2_bEEOT_OT0_, symObjAddr: 0x2274, symBinAddr: 0x100002A5C, symSize: 0x4C }
  - { offset: 0x3620C, size: 0x8, addend: 0x0, symName: __ZNKSt10_HashtableIiiSaIiENSt8__detail9_IdentityESt8equal_toIiESt4hashIiENS1_18_Mod_range_hashingENS1_20_Default_ranged_hashENS1_20_Prime_rehash_policyENS1_17_Hashtable_traitsILb0ELb1ELb1EEEE15__location_typecvbEv, symObjAddr: 0x2250, symBinAddr: 0x100002A38, symSize: 0x24 }
  - { offset: 0x3624C, size: 0x8, addend: 0x0, symName: __ZNSt8__detail16_Hashtable_allocISaINS_10_Hash_nodeIiLb0EEEEE16_M_allocate_nodeIJiEEEPS2_DpOT_, symObjAddr: 0x20E4, symBinAddr: 0x1000028CC, symSize: 0x16C }
  - { offset: 0x36448, size: 0x8, addend: 0x0, symName: __ZNSt8__detail10_Hash_nodeIiLb0EEC1Ev, symObjAddr: 0x20C4, symBinAddr: 0x1000028AC, symSize: 0x20 }
  - { offset: 0x364AE, size: 0x8, addend: 0x0, symName: __ZNSt10_HashtableIiiSaIiENSt8__detail9_IdentityESt8equal_toIiESt4hashIiENS1_18_Mod_range_hashingENS1_20_Default_ranged_hashENS1_20_Prime_rehash_policyENS1_17_Hashtable_traitsILb0ELb1ELb1EEEE12_Scoped_nodeD1Ev, symObjAddr: 0x2080, symBinAddr: 0x100002868, symSize: 0x44 }
  - { offset: 0x3650A, size: 0x8, addend: 0x0, symName: __ZNSt10_HashtableIiiSaIiENSt8__detail9_IdentityESt8equal_toIiESt4hashIiENS1_18_Mod_range_hashingENS1_20_Default_ranged_hashENS1_20_Prime_rehash_policyENS1_17_Hashtable_traitsILb0ELb1ELb1EEEE12_Scoped_nodeC1EPNS1_10_Hash_nodeIiLb0EEEPNS1_16_Hashtable_allocISaISF_EEE, symObjAddr: 0x204C, symBinAddr: 0x100002834, symSize: 0x34 }
  - { offset: 0x36560, size: 0x8, addend: 0x0, symName: __ZNKSt8__detail9_IdentityclIRiEEOT_S4_, symObjAddr: 0x202C, symBinAddr: 0x100002814, symSize: 0x20 }
  - { offset: 0x365EE, size: 0x8, addend: 0x0, symName: __ZNSt8__detail19_Node_iterator_baseIiLb0EEC2EPNS_10_Hash_nodeIiLb0EEE, symObjAddr: 0x2008, symBinAddr: 0x1000027F0, symSize: 0x24 }
  - { offset: 0x3661D, size: 0x8, addend: 0x0, symName: __ZNKSt10_HashtableIiiSaIiENSt8__detail9_IdentityESt8equal_toIiESt4hashIiENS1_18_Mod_range_hashingENS1_20_Default_ranged_hashENS1_20_Prime_rehash_policyENS1_17_Hashtable_traitsILb0ELb1ELb1EEEE19_M_find_before_nodeEmRKim, symObjAddr: 0x1EDC, symBinAddr: 0x1000026C4, symSize: 0x12C }
  - { offset: 0x366AF, size: 0x8, addend: 0x0, symName: __ZNKSt10_HashtableIiiSaIiENSt8__detail9_IdentityESt8equal_toIiESt4hashIiENS1_18_Mod_range_hashingENS1_20_Default_ranged_hashENS1_20_Prime_rehash_policyENS1_17_Hashtable_traitsILb0ELb1ELb1EEEE15_M_bucket_indexEm, symObjAddr: 0x1EAC, symBinAddr: 0x100002694, symSize: 0x30 }
  - { offset: 0x366EA, size: 0x8, addend: 0x0, symName: __ZNKSt8__detail15_Hash_code_baseIiiNS_9_IdentityESt4hashIiENS_18_Mod_range_hashingENS_20_Default_ranged_hashELb0EE12_M_hash_codeERKi, symObjAddr: 0x1E7C, symBinAddr: 0x100002664, symSize: 0x30 }
  - { offset: 0x36725, size: 0x8, addend: 0x0, symName: __ZNKSt8__detail15_Hashtable_baseIiiNS_9_IdentityESt8equal_toIiESt4hashIiENS_18_Mod_range_hashingENS_20_Default_ranged_hashENS_17_Hashtable_traitsILb0ELb1ELb1EEEE13_M_key_equalsERKiRKNS_16_Hash_node_valueIiLb0EEE, symObjAddr: 0x1E10, symBinAddr: 0x1000025F8, symSize: 0x6C }
  - { offset: 0x367B9, size: 0x8, addend: 0x0, symName: __ZNKSt10_HashtableIiiSaIiENSt8__detail9_IdentityESt8equal_toIiESt4hashIiENS1_18_Mod_range_hashingENS1_20_Default_ranged_hashENS1_20_Prime_rehash_policyENS1_17_Hashtable_traitsILb0ELb1ELb1EEEE15__location_type7_M_nodeEv, symObjAddr: 0x1DDC, symBinAddr: 0x1000025C4, symSize: 0x34 }
  - { offset: 0x367DF, size: 0x8, addend: 0x0, symName: __ZNSt19__ptr_traits_ptr_toIPNSt8__detail15_Hash_node_baseES1_Lb0EE10pointer_toERS1_, symObjAddr: 0x1DB4, symBinAddr: 0x10000259C, symSize: 0x28 }
  - { offset: 0x3684E, size: 0x8, addend: 0x0, symName: __ZNSt10_HashtableIiiSaIiENSt8__detail9_IdentityESt8equal_toIiESt4hashIiENS1_18_Mod_range_hashingENS1_20_Default_ranged_hashENS1_20_Prime_rehash_policyENS1_17_Hashtable_traitsILb0ELb1ELb1EEEE22__small_size_thresholdEv, symObjAddr: 0x1DA0, symBinAddr: 0x100002588, symSize: 0x14 }
  - { offset: 0x3686A, size: 0x8, addend: 0x0, symName: __ZNSt8__detail16_Hashtable_allocISaINS_10_Hash_nodeIiLb0EEEEE21_M_deallocate_bucketsEPPNS_15_Hash_node_baseEm, symObjAddr: 0x1CFC, symBinAddr: 0x1000024E4, symSize: 0xA4 }
  - { offset: 0x369CC, size: 0x8, addend: 0x0, symName: __ZNKSt10_HashtableIiiSaIiENSt8__detail9_IdentityESt8equal_toIiESt4hashIiENS1_18_Mod_range_hashingENS1_20_Default_ranged_hashENS1_20_Prime_rehash_policyENS1_17_Hashtable_traitsILb0ELb1ELb1EEEE21_M_uses_single_bucketEPPNS1_15_Hash_node_baseE, symObjAddr: 0x1CC0, symBinAddr: 0x1000024A8, symSize: 0x3C }
  - { offset: 0x36A07, size: 0x8, addend: 0x0, symName: __ZNSt8__detail16_Hashtable_allocISaINS_10_Hash_nodeIiLb0EEEEE22_M_deallocate_node_ptrEPS2_, symObjAddr: 0x1C34, symBinAddr: 0x10000241C, symSize: 0x8C }
  - { offset: 0x36B1D, size: 0x8, addend: 0x0, symName: __ZNSt8__detail16_Hashtable_allocISaINS_10_Hash_nodeIiLb0EEEEE17_M_node_allocatorEv, symObjAddr: 0x1C20, symBinAddr: 0x100002408, symSize: 0x14 }
  - { offset: 0x36B43, size: 0x8, addend: 0x0, symName: __ZSt13__countl_zeroImEiT_, symObjAddr: 0x1C00, symBinAddr: 0x1000023E8, symSize: 0x20 }
  - { offset: 0x36BC6, size: 0x8, addend: 0x0, symName: __ZNKSt6vectorIiSaIiEE3endEv, symObjAddr: 0x1BD0, symBinAddr: 0x1000023B8, symSize: 0x30 }
  - { offset: 0x36C1A, size: 0x8, addend: 0x0, symName: __ZNKSt6vectorIiSaIiEE5beginEv, symObjAddr: 0x1BA4, symBinAddr: 0x10000238C, symSize: 0x2C }
  - { offset: 0x36C6A, size: 0x8, addend: 0x0, symName: __ZSt22__final_insertion_sortIN9__gnu_cxx17__normal_iteratorIPiSt6vectorIiSaIiEEEENS0_5__ops15_Iter_less_iterEEvT_S9_T0_, symObjAddr: 0x1AB4, symBinAddr: 0x10000229C, symSize: 0xF0 }
  - { offset: 0x36DDC, size: 0x8, addend: 0x0, symName: __ZSt16__introsort_loopIN9__gnu_cxx17__normal_iteratorIPiSt6vectorIiSaIiEEEElNS0_5__ops15_Iter_less_iterEEvT_S9_T0_T1_, symObjAddr: 0x19E0, symBinAddr: 0x1000021C8, symSize: 0xD4 }
  - { offset: 0x36EE7, size: 0x8, addend: 0x0, symName: __ZSt4__lgIlET_S0_, symObjAddr: 0x19BC, symBinAddr: 0x1000021A4, symSize: 0x24 }
  - { offset: 0x36F1A, size: 0x8, addend: 0x0, symName: __ZNSt6vectorIiSaIiEE11_S_relocateEPiS2_S2_RS0_, symObjAddr: 0x1988, symBinAddr: 0x100002170, symSize: 0x34 }
  - { offset: 0x36FB3, size: 0x8, addend: 0x0, symName: __ZNSt6vectorIiSaIiEE12_Guard_allocD1Ev, symObjAddr: 0x193C, symBinAddr: 0x100002124, symSize: 0x4C }
  - { offset: 0x3701D, size: 0x8, addend: 0x0, symName: __ZNSt6vectorIiSaIiEE12_Guard_allocC1EPimRSt12_Vector_baseIiS0_E, symObjAddr: 0x18F8, symBinAddr: 0x1000020E0, symSize: 0x44 }
  - { offset: 0x3705E, size: 0x8, addend: 0x0, symName: __ZNSt12_Vector_baseIiSaIiEE11_M_allocateEm, symObjAddr: 0x1834, symBinAddr: 0x10000201C, symSize: 0xC4 }
  - { offset: 0x37108, size: 0x8, addend: 0x0, symName: __ZSt12construct_atIiJRKiEQaant20is_unbounded_array_vIT_ErqXgsnwcvPvLi0E_S2_pispcl7declvalIT0_EEEEEPS2_S5_DpOS4_, symObjAddr: 0x17C4, symBinAddr: 0x100001FAC, symSize: 0x70 }
  - { offset: 0x371B0, size: 0x8, addend: 0x0, symName: __ZSt8_DestroyIPiEvT_S1_, symObjAddr: 0x1768, symBinAddr: 0x100001F50, symSize: 0x5C }
  - { offset: 0x37264, size: 0x8, addend: 0x0, symName: __ZNSt10_HashtableIiiSaIiENSt8__detail9_IdentityESt8equal_toIiESt4hashIiENS1_18_Mod_range_hashingENS1_20_Default_ranged_hashENS1_20_Prime_rehash_policyENS1_17_Hashtable_traitsILb0ELb1ELb1EEEE15_M_emplace_uniqIJRKiEEESt4pairINS1_14_Node_iteratorIiLb1ELb0EEEbEDpOT_, symObjAddr: 0x15A8, symBinAddr: 0x100001D90, symSize: 0x1C0 }
  - { offset: 0x37455, size: 0x8, addend: 0x0, symName: __ZNSt10_HashtableIiiSaIiENSt8__detail9_IdentityESt8equal_toIiESt4hashIiENS1_18_Mod_range_hashingENS1_20_Default_ranged_hashENS1_20_Prime_rehash_policyENS1_17_Hashtable_traitsILb0ELb1ELb1EEEE15_M_emplace_uniqIJiEEESt4pairINS1_14_Node_iteratorIiLb1ELb0EEEbEDpOT_, symObjAddr: 0x13E8, symBinAddr: 0x100001BD0, symSize: 0x1C0 }
  - { offset: 0x37667, size: 0x8, addend: 0x0, symName: __ZNSt8__detail14_Node_iteratorIiLb1ELb0EEC1EPNS_10_Hash_nodeIiLb0EEE, symObjAddr: 0x13C0, symBinAddr: 0x100001BA8, symSize: 0x28 }
  - { offset: 0x37696, size: 0x8, addend: 0x0, symName: __ZNKSt10_HashtableIiiSaIiENSt8__detail9_IdentityESt8equal_toIiESt4hashIiENS1_18_Mod_range_hashingENS1_20_Default_ranged_hashENS1_20_Prime_rehash_policyENS1_17_Hashtable_traitsILb0ELb1ELb1EEEE15__location_typecvNS1_14_Node_iteratorIiLb1ELb0EEEEv, symObjAddr: 0x1394, symBinAddr: 0x100001B7C, symSize: 0x2C }
  - { offset: 0x376C0, size: 0x8, addend: 0x0, symName: __ZNKSt10_HashtableIiiSaIiENSt8__detail9_IdentityESt8equal_toIiESt4hashIiENS1_18_Mod_range_hashingENS1_20_Default_ranged_hashENS1_20_Prime_rehash_policyENS1_17_Hashtable_traitsILb0ELb1ELb1EEEE9_M_locateERKi, symObjAddr: 0x125C, symBinAddr: 0x100001A44, symSize: 0x138 }
  - { offset: 0x3771D, size: 0x8, addend: 0x0, symName: __ZNSt10_HashtableIiiSaIiENSt8__detail9_IdentityESt8equal_toIiESt4hashIiENS1_18_Mod_range_hashingENS1_20_Default_ranged_hashENS1_20_Prime_rehash_policyENS1_17_Hashtable_traitsILb0ELb1ELb1EEEE21_M_deallocate_bucketsEPPNS1_15_Hash_node_baseEm, symObjAddr: 0x1210, symBinAddr: 0x1000019F8, symSize: 0x4C }
  - { offset: 0x37769, size: 0x8, addend: 0x0, symName: __ZNSt8__detail16_Hashtable_allocISaINS_10_Hash_nodeIiLb0EEEEE18_M_deallocate_nodeEPS2_, symObjAddr: 0x11A8, symBinAddr: 0x100001990, symSize: 0x68 }
  - { offset: 0x377F5, size: 0x8, addend: 0x0, symName: __ZNKSt8__detail10_Hash_nodeIiLb0EE7_M_nextEv, symObjAddr: 0x1190, symBinAddr: 0x100001978, symSize: 0x18 }
  - { offset: 0x3781B, size: 0x8, addend: 0x0, symName: __ZSt11__bit_widthImEiT_, symObjAddr: 0x1160, symBinAddr: 0x100001948, symSize: 0x30 }
  - { offset: 0x37863, size: 0x8, addend: 0x0, symName: __ZNKSt10_HashtableIiiSaIiENSt8__detail9_IdentityESt8equal_toIiESt4hashIiENS1_18_Mod_range_hashingENS1_20_Default_ranged_hashENS1_20_Prime_rehash_policyENS1_17_Hashtable_traitsILb0ELb1ELb1EEEE4sizeEv, symObjAddr: 0x1148, symBinAddr: 0x100001930, symSize: 0x18 }
  - { offset: 0x378C7, size: 0x8, addend: 0x0, symName: __ZNKSt6vectorIiSaIiEE5emptyEv, symObjAddr: 0x10F0, symBinAddr: 0x1000018D8, symSize: 0x58 }
  - { offset: 0x3795C, size: 0x8, addend: 0x0, symName: __ZSt6__sortIN9__gnu_cxx17__normal_iteratorIPiSt6vectorIiSaIiEEEENS0_5__ops15_Iter_less_iterEEvT_S9_T0_, symObjAddr: 0x1034, symBinAddr: 0x10000181C, symSize: 0xBC }
  - { offset: 0x37AE8, size: 0x8, addend: 0x0, symName: __ZNSt6vectorIiSaIiEE17_M_realloc_appendIJRKiEEEvDpOT_, symObjAddr: 0xE84, symBinAddr: 0x10000166C, symSize: 0x1B0 }
  - { offset: 0x37D6B, size: 0x8, addend: 0x0, symName: __ZNSt6vectorIiSaIiEE11_S_max_sizeERKS0_, symObjAddr: 0xE50, symBinAddr: 0x100001638, symSize: 0x34 }
  - { offset: 0x37DBB, size: 0x8, addend: 0x0, symName: __ZNKSt12_Vector_baseIiSaIiEE19_M_get_Tp_allocatorEv, symObjAddr: 0xE3C, symBinAddr: 0x100001624, symSize: 0x14 }
  - { offset: 0x37DE5, size: 0x8, addend: 0x0, symName: __ZNKSt6vectorIiSaIiEE8max_sizeEv, symObjAddr: 0xE1C, symBinAddr: 0x100001604, symSize: 0x20 }
  - { offset: 0x37E0F, size: 0x8, addend: 0x0, symName: __ZNKSt6vectorIiSaIiEE12_M_check_lenEmPKc, symObjAddr: 0xD4C, symBinAddr: 0x100001534, symSize: 0xD0 }
  - { offset: 0x37E6C, size: 0x8, addend: 0x0, symName: __ZNKSt6vectorIiSaIiEE4sizeEv, symObjAddr: 0xD0C, symBinAddr: 0x1000014F4, symSize: 0x40 }
  - { offset: 0x37F2A, size: 0x8, addend: 0x0, symName: __ZNSt12_Vector_baseIiSaIiEE19_M_get_Tp_allocatorEv, symObjAddr: 0xCF8, symBinAddr: 0x1000014E0, symSize: 0x14 }
  - { offset: 0x37F54, size: 0x8, addend: 0x0, symName: __ZNSt12_Vector_baseIiSaIiEE13_M_deallocateEPim, symObjAddr: 0xC6C, symBinAddr: 0x100001454, symSize: 0x8C }
  - { offset: 0x38026, size: 0x8, addend: 0x0, symName: __ZNSt10_HashtableIiiSaIiENSt8__detail9_IdentityESt8equal_toIiESt4hashIiENS1_18_Mod_range_hashingENS1_20_Default_ranged_hashENS1_20_Prime_rehash_policyENS1_17_Hashtable_traitsILb0ELb1ELb1EEEE6insertERKi, symObjAddr: 0xC48, symBinAddr: 0x100001430, symSize: 0x24 }
  - { offset: 0x38061, size: 0x8, addend: 0x0, symName: __ZNSt10_HashtableIiiSaIiENSt8__detail9_IdentityESt8equal_toIiESt4hashIiENS1_18_Mod_range_hashingENS1_20_Default_ranged_hashENS1_20_Prime_rehash_policyENS1_17_Hashtable_traitsILb0ELb1ELb1EEEE6insertEOi, symObjAddr: 0xC18, symBinAddr: 0x100001400, symSize: 0x30 }
  - { offset: 0x380E5, size: 0x8, addend: 0x0, symName: __ZNSt10_HashtableIiiSaIiENSt8__detail9_IdentityESt8equal_toIiESt4hashIiENS1_18_Mod_range_hashingENS1_20_Default_ranged_hashENS1_20_Prime_rehash_policyENS1_17_Hashtable_traitsILb0ELb1ELb1EEEE3endEv, symObjAddr: 0xBF4, symBinAddr: 0x1000013DC, symSize: 0x24 }
  - { offset: 0x3810F, size: 0x8, addend: 0x0, symName: __ZNSt10_HashtableIiiSaIiENSt8__detail9_IdentityESt8equal_toIiESt4hashIiENS1_18_Mod_range_hashingENS1_20_Default_ranged_hashENS1_20_Prime_rehash_policyENS1_17_Hashtable_traitsILb0ELb1ELb1EEEE4findERKi, symObjAddr: 0xBC0, symBinAddr: 0x1000013A8, symSize: 0x34 }
  - { offset: 0x3814A, size: 0x8, addend: 0x0, symName: __ZNSt10_HashtableIiiSaIiENSt8__detail9_IdentityESt8equal_toIiESt4hashIiENS1_18_Mod_range_hashingENS1_20_Default_ranged_hashENS1_20_Prime_rehash_policyENS1_17_Hashtable_traitsILb0ELb1ELb1EEEE21_M_deallocate_bucketsEv, symObjAddr: 0xB8C, symBinAddr: 0x100001374, symSize: 0x34 }
  - { offset: 0x38174, size: 0x8, addend: 0x0, symName: __ZNSt8__detail16_Hashtable_allocISaINS_10_Hash_nodeIiLb0EEEEE19_M_deallocate_nodesEPS2_, symObjAddr: 0xB3C, symBinAddr: 0x100001324, symSize: 0x50 }
  - { offset: 0x381D3, size: 0x8, addend: 0x0, symName: __ZNKSt10_HashtableIiiSaIiENSt8__detail9_IdentityESt8equal_toIiESt4hashIiENS1_18_Mod_range_hashingENS1_20_Default_ranged_hashENS1_20_Prime_rehash_policyENS1_17_Hashtable_traitsILb0ELb1ELb1EEEE8_M_beginEv, symObjAddr: 0xB24, symBinAddr: 0x10000130C, symSize: 0x18 }
  - { offset: 0x38247, size: 0x8, addend: 0x0, symName: __ZNKSt13unordered_setIiSt4hashIiESt8equal_toIiESaIiEE4sizeEv, symObjAddr: 0xB08, symBinAddr: 0x1000012F0, symSize: 0x1C }
  - { offset: 0x38271, size: 0x8, addend: 0x0, symName: __ZNSt6vectorIiSaIiEE4backEv, symObjAddr: 0xA6C, symBinAddr: 0x100001254, symSize: 0x9C }
  - { offset: 0x38328, size: 0x8, addend: 0x0, symName: __ZNSt6vectorIiSaIiEEixEm, symObjAddr: 0x9E8, symBinAddr: 0x1000011D0, symSize: 0x84 }
  - { offset: 0x3837A, size: 0x8, addend: 0x0, symName: __ZSt4sortIN9__gnu_cxx17__normal_iteratorIPiSt6vectorIiSaIiEEEEEvT_S7_, symObjAddr: 0x9B0, symBinAddr: 0x100001198, symSize: 0x38 }
  - { offset: 0x383C2, size: 0x8, addend: 0x0, symName: __ZNSt6vectorIiSaIiEE3endEv, symObjAddr: 0x980, symBinAddr: 0x100001168, symSize: 0x30 }
  - { offset: 0x38416, size: 0x8, addend: 0x0, symName: __ZNSt6vectorIiSaIiEE5beginEv, symObjAddr: 0x954, symBinAddr: 0x10000113C, symSize: 0x2C }
  - { offset: 0x3846A, size: 0x8, addend: 0x0, symName: __ZNSt6vectorIiSaIiEE9push_backERKi, symObjAddr: 0x8C4, symBinAddr: 0x1000010AC, symSize: 0x90 }
  - { offset: 0x38519, size: 0x8, addend: 0x0, symName: __ZNSt6vectorIiSaIiEED1Ev, symObjAddr: 0x868, symBinAddr: 0x100001050, symSize: 0x5C }
  - { offset: 0x3858F, size: 0x8, addend: 0x0, symName: __ZNSt12_Vector_baseIiSaIiEED2Ev, symObjAddr: 0x818, symBinAddr: 0x100001000, symSize: 0x50 }
  - { offset: 0x385CB, size: 0x8, addend: 0x0, symName: __ZNSt13unordered_setIiSt4hashIiESt8equal_toIiESaIiEE6insertERKi, symObjAddr: 0x7F4, symBinAddr: 0x100000FDC, symSize: 0x24 }
  - { offset: 0x38606, size: 0x8, addend: 0x0, symName: __ZNSt13unordered_setIiSt4hashIiESt8equal_toIiESaIiEE6insertEOi, symObjAddr: 0x7C8, symBinAddr: 0x100000FB0, symSize: 0x2C }
  - { offset: 0x38668, size: 0x8, addend: 0x0, symName: __ZNSt8__detaileqERKNS_19_Node_iterator_baseIiLb0EEES3_, symObjAddr: 0x798, symBinAddr: 0x100000F80, symSize: 0x30 }
  - { offset: 0x386A7, size: 0x8, addend: 0x0, symName: __ZNSt13unordered_setIiSt4hashIiESt8equal_toIiESaIiEE3endEv, symObjAddr: 0x77C, symBinAddr: 0x100000F64, symSize: 0x1C }
  - { offset: 0x386D1, size: 0x8, addend: 0x0, symName: __ZNSt13unordered_setIiSt4hashIiESt8equal_toIiESaIiEE4findERKi, symObjAddr: 0x758, symBinAddr: 0x100000F40, symSize: 0x24 }
  - { offset: 0x38726, size: 0x8, addend: 0x0, symName: __ZNSt10_HashtableIiiSaIiENSt8__detail9_IdentityESt8equal_toIiESt4hashIiENS1_18_Mod_range_hashingENS1_20_Default_ranged_hashENS1_20_Prime_rehash_policyENS1_17_Hashtable_traitsILb0ELb1ELb1EEEED1Ev, symObjAddr: 0x71C, symBinAddr: 0x100000F04, symSize: 0x3C }
  - { offset: 0x3875E, size: 0x8, addend: 0x0, symName: __ZSt3maxImERKT_S2_S2_, symObjAddr: 0x6E4, symBinAddr: 0x100000ECC, symSize: 0x38 }
  - { offset: 0x387A9, size: 0x8, addend: 0x0, symName: _main, symObjAddr: 0x530, symBinAddr: 0x100000D18, symSize: 0x1B4 }
  - { offset: 0x3886C, size: 0x8, addend: 0x0, symName: __ZNSt12_Vector_baseIiSaIiEE12_Vector_implD1Ev, symObjAddr: 0x510, symBinAddr: 0x100000CF8, symSize: 0x20 }
  - { offset: 0x388B8, size: 0x8, addend: 0x0, symName: __Z7processi, symObjAddr: 0x2F0, symBinAddr: 0x100000AD8, symSize: 0x220 }
  - { offset: 0x38912, size: 0x8, addend: 0x0, symName: __ZNSt8__detaileqERKNS_14_Node_iteratorIiLb1ELb0EEES3_, symObjAddr: 0x2B4, symBinAddr: 0x100000A9C, symSize: 0x3C }
  - { offset: 0x3895B, size: 0x8, addend: 0x0, symName: __ZNSt13unordered_setIiSt4hashIiESt8equal_toIiESaIiEEC1Ev, symObjAddr: 0x294, symBinAddr: 0x100000A7C, symSize: 0x20 }
  - { offset: 0x3899B, size: 0x8, addend: 0x0, symName: __ZNSt10_HashtableIiiSaIiENSt8__detail9_IdentityESt8equal_toIiESt4hashIiENS1_18_Mod_range_hashingENS1_20_Default_ranged_hashENS1_20_Prime_rehash_policyENS1_17_Hashtable_traitsILb0ELb1ELb1EEEEC1Ev, symObjAddr: 0x224, symBinAddr: 0x100000A0C, symSize: 0x70 }
  - { offset: 0x389DF, size: 0x8, addend: 0x0, symName: __ZNSt8__detail16_Hashtable_allocISaINS_10_Hash_nodeIiLb0EEEEED2Ev, symObjAddr: 0x204, symBinAddr: 0x1000009EC, symSize: 0x20 }
  - { offset: 0x38A2F, size: 0x8, addend: 0x0, symName: __ZNSt8__detail21_Hashtable_ebo_helperISaINS_10_Hash_nodeIiLb0EEEELb1EED1Ev, symObjAddr: 0x1E4, symBinAddr: 0x1000009CC, symSize: 0x20 }
  - { offset: 0x38A93, size: 0x8, addend: 0x0, symName: __ZNSt8__detail16_Hashtable_allocISaINS_10_Hash_nodeIiLb0EEEEEC2Ev, symObjAddr: 0x1D0, symBinAddr: 0x1000009B8, symSize: 0x14 }
  - { offset: 0x38AD3, size: 0x8, addend: 0x0, symName: __ZNSt8__detail15_Hashtable_baseIiiNS_9_IdentityESt8equal_toIiESt4hashIiENS_18_Mod_range_hashingENS_20_Default_ranged_hashENS_17_Hashtable_traitsILb0ELb1ELb1EEEEC2Ev, symObjAddr: 0x1B0, symBinAddr: 0x100000998, symSize: 0x20 }
  - { offset: 0x38B13, size: 0x8, addend: 0x0, symName: __ZNSt8__detail15_Hash_code_baseIiiNS_9_IdentityESt4hashIiENS_18_Mod_range_hashingENS_20_Default_ranged_hashELb0EEC2Ev, symObjAddr: 0x19C, symBinAddr: 0x100000984, symSize: 0x14 }
  - { offset: 0x38B35, size: 0x8, addend: 0x0, symName: __ZSt3minImERKT_S2_S2_, symObjAddr: 0x164, symBinAddr: 0x10000094C, symSize: 0x38 }
  - { offset: 0x38B7B, size: 0x8, addend: 0x0, symName: __ZNSt8__detail20_Prime_rehash_policy8_M_resetEm, symObjAddr: 0x140, symBinAddr: 0x100000928, symSize: 0x24 }
  - { offset: 0x38BB6, size: 0x8, addend: 0x0, symName: __ZNKSt8__detail20_Prime_rehash_policy8_M_stateEv, symObjAddr: 0x128, symBinAddr: 0x100000910, symSize: 0x18 }
  - { offset: 0x38C08, size: 0x8, addend: 0x0, symName: __ZNSt8__detail20_Prime_rehash_policyC1Ef, symObjAddr: 0xFC, symBinAddr: 0x1000008E4, symSize: 0x2C }
  - { offset: 0x38C37, size: 0x8, addend: 0x0, symName: __ZNKSt8__detail18_Mod_range_hashingclEmm, symObjAddr: 0xCC, symBinAddr: 0x1000008B4, symSize: 0x30 }
  - { offset: 0x38C9D, size: 0x8, addend: 0x0, symName: __ZNSt8__detail15_Hash_node_baseC1Ev, symObjAddr: 0xB0, symBinAddr: 0x100000898, symSize: 0x1C }
  - { offset: 0x38CC7, size: 0x8, addend: 0x0, symName: __ZNSt8__detail15_Hash_node_baseC2Ev, symObjAddr: 0x94, symBinAddr: 0x10000087C, symSize: 0x1C }
  - { offset: 0x38CED, size: 0x8, addend: 0x0, symName: __ZNKSt4hashIiEclEi, symObjAddr: 0x7C, symBinAddr: 0x100000864, symSize: 0x18 }
  - { offset: 0x38D23, size: 0x8, addend: 0x0, symName: __ZN9__gnu_cxx5__ops15__val_comp_iterENS0_15_Iter_less_iterE, symObjAddr: 0x64, symBinAddr: 0x10000084C, symSize: 0x18 }
  - { offset: 0x38D45, size: 0x8, addend: 0x0, symName: __ZN9__gnu_cxx5__ops16__iter_less_iterEv, symObjAddr: 0x5C, symBinAddr: 0x100000844, symSize: 0x8 }
  - { offset: 0x38D64, size: 0x8, addend: 0x0, symName: __ZdlPvS_, symObjAddr: 0x44, symBinAddr: 0x10000082C, symSize: 0x18 }
  - { offset: 0x38D9A, size: 0x8, addend: 0x0, symName: __ZnwmPv, symObjAddr: 0x2C, symBinAddr: 0x100000814, symSize: 0x18 }
  - { offset: 0x38DCC, size: 0x8, addend: 0x0, symName: __ZStltSt15strong_orderingNSt9__cmp_cat8__unspecE, symObjAddr: 0x8, symBinAddr: 0x1000007F0, symSize: 0x24 }
  - { offset: 0x38DFF, size: 0x8, addend: 0x0, symName: __ZSt21is_constant_evaluatedv, symObjAddr: 0x0, symBinAddr: 0x1000007E8, symSize: 0x8 }
...
